---
triple:          'arm64-apple-darwin'
binary-path:     '/Users/theoriz/Desktop/AtCoder/c++/practice2/E_min_cost_flow/official'
relocations:
  - { offset: 0x1BA0F, size: 0x8, addend: 0x0, symName: __ZStL8__ioinit, symObjAddr: 0xBB187, symBinAddr: 0x100020000, symSize: 0x0 }
  - { offset: 0x1CE1F, size: 0x8, addend: 0x0, symName: __ZNSt11__copy_moveILb0ELb0ESt26random_access_iterator_tagE12__assign_oneIxKxEEvPT_PT0_, symObjAddr: 0xC3D4, symBinAddr: 0x100010428, symSize: 0x28 }
  - { offset: 0x1CE69, size: 0x8, addend: 0x0, symName: __ZNSt11__copy_moveILb1ELb0ESt26random_access_iterator_tagE12__assign_oneIZN7atcoder9mcf_graphIixE5slopeERNS3_8internal3csrINS5_5_edgeEEEiiiE1QSB_EEvPT_PT0_, symObjAddr: 0xC3A4, symBinAddr: 0x1000103F8, symSize: 0x30 }
  - { offset: 0x1CEB9, size: 0x8, addend: 0x0, symName: __ZSt4moveIRiEONSt16remove_referenceIT_E4typeEOS2_, symObjAddr: 0xC390, symBinAddr: 0x1000103E4, symSize: 0x14 }
  - { offset: 0x1CEE9, size: 0x8, addend: 0x0, symName: __ZNSt11__copy_moveILb0ELb1ESt26random_access_iterator_tagE8__copy_mIKxxEEPT0_PT_S7_S5_, symObjAddr: 0xC300, symBinAddr: 0x100010354, symSize: 0x90 }
  - { offset: 0x1CF53, size: 0x8, addend: 0x0, symName: __ZNSt11__copy_moveILb1ELb1ESt26random_access_iterator_tagE8__copy_mIZN7atcoder9mcf_graphIixE5slopeERNS3_8internal3csrINS5_5_edgeEEEiiiE1QSB_EEPT0_PT_SF_SD_, symObjAddr: 0xC270, symBinAddr: 0x1000102C4, symSize: 0x90 }
  - { offset: 0x1CFBD, size: 0x8, addend: 0x0, symName: __ZNSt11__copy_moveILb1ELb0ESt26random_access_iterator_tagE12__assign_oneIiiEEvPT_PT0_, symObjAddr: 0xC240, symBinAddr: 0x100010294, symSize: 0x30 }
  - { offset: 0x1D007, size: 0x8, addend: 0x0, symName: __ZSt14__copy_move_a2ILb0EPKxPxET1_T0_S4_S3_, symObjAddr: 0xC214, symBinAddr: 0x100010268, symSize: 0x2C }
  - { offset: 0x1D06F, size: 0x8, addend: 0x0, symName: __ZNK9__gnu_cxx17__normal_iteratorIPKxSt6vectorIxSaIxEEE4baseEv, symObjAddr: 0xC200, symBinAddr: 0x100010254, symSize: 0x14 }
  - { offset: 0x1D097, size: 0x8, addend: 0x0, symName: __ZNKSt13move_iteratorIPSt4pairIixEE4baseEv, symObjAddr: 0xC1E8, symBinAddr: 0x10001023C, symSize: 0x18 }
  - { offset: 0x1D0BB, size: 0x8, addend: 0x0, symName: __ZSt14__copy_move_a2ILb1EPZN7atcoder9mcf_graphIixE5slopeERNS0_8internal3csrINS2_5_edgeEEEiiiE1QS9_ET1_T0_SB_SA_, symObjAddr: 0xC1BC, symBinAddr: 0x100010210, symSize: 0x2C }
  - { offset: 0x1D11F, size: 0x8, addend: 0x0, symName: __ZNSt11__copy_moveILb1ELb1ESt26random_access_iterator_tagE8__copy_mIiiEEPT0_PT_S6_S4_, symObjAddr: 0xC12C, symBinAddr: 0x100010180, symSize: 0x90 }
  - { offset: 0x1D189, size: 0x8, addend: 0x0, symName: __ZNSt11__copy_moveILb1ELb0ESt26random_access_iterator_tagE12__assign_oneIN7atcoder9mcf_graphIixE4edgeES6_EEvPT_PT0_, symObjAddr: 0xC0E8, symBinAddr: 0x10001013C, symSize: 0x44 }
  - { offset: 0x1D1D3, size: 0x8, addend: 0x0, symName: __ZSt12__niter_wrapIPxET_RKS1_S1_, symObjAddr: 0xC0D0, symBinAddr: 0x100010124, symSize: 0x18 }
  - { offset: 0x1D20C, size: 0x8, addend: 0x0, symName: __ZSt14__copy_move_a1ILb0EPKxPxET1_T0_S4_S3_, symObjAddr: 0xC0A4, symBinAddr: 0x1000100F8, symSize: 0x2C }
  - { offset: 0x1D270, size: 0x8, addend: 0x0, symName: __ZSt12__niter_baseIPxET_S1_, symObjAddr: 0xC090, symBinAddr: 0x1000100E4, symSize: 0x14 }
  - { offset: 0x1D2A1, size: 0x8, addend: 0x0, symName: __ZSt12__niter_baseIPKxSt6vectorIxSaIxEEET_N9__gnu_cxx17__normal_iteratorIS5_T0_EE, symObjAddr: 0xC070, symBinAddr: 0x1000100C4, symSize: 0x20 }
  - { offset: 0x1D2E1, size: 0x8, addend: 0x0, symName: __ZSteqIPSt4pairIixEEbRKSt13move_iteratorIT_ES7_, symObjAddr: 0xC030, symBinAddr: 0x100010084, symSize: 0x40 }
  - { offset: 0x1D322, size: 0x8, addend: 0x0, symName: __ZSt12__niter_wrapIPZN7atcoder9mcf_graphIixE5slopeERNS0_8internal3csrINS2_5_edgeEEEiiiE1QET_RKSA_SA_, symObjAddr: 0xC018, symBinAddr: 0x10001006C, symSize: 0x18 }
  - { offset: 0x1D35B, size: 0x8, addend: 0x0, symName: __ZSt14__copy_move_a1ILb1EPZN7atcoder9mcf_graphIixE5slopeERNS0_8internal3csrINS2_5_edgeEEEiiiE1QS9_ET1_T0_SB_SA_, symObjAddr: 0xBFEC, symBinAddr: 0x100010040, symSize: 0x2C }
  - { offset: 0x1D3BF, size: 0x8, addend: 0x0, symName: __ZSt12__miter_baseIPZN7atcoder9mcf_graphIixE5slopeERNS0_8internal3csrINS2_5_edgeEEEiiiE1QET_SA_, symObjAddr: 0xBFD8, symBinAddr: 0x10001002C, symSize: 0x14 }
  - { offset: 0x1D3F4, size: 0x8, addend: 0x0, symName: __ZNKSt13move_iteratorIPZN7atcoder9mcf_graphIixE5slopeERNS0_8internal3csrINS2_5_edgeEEEiiiE1QE4baseEv, symObjAddr: 0xBFC0, symBinAddr: 0x100010014, symSize: 0x18 }
  - { offset: 0x1D418, size: 0x8, addend: 0x0, symName: __ZSt14__copy_move_a2ILb1EPiS0_ET1_T0_S2_S1_, symObjAddr: 0xBF94, symBinAddr: 0x10000FFE8, symSize: 0x2C }
  - { offset: 0x1D47C, size: 0x8, addend: 0x0, symName: __ZNSt11__copy_moveILb0ELb0ESt26random_access_iterator_tagE12__assign_oneIiKiEEvPT_PT0_, symObjAddr: 0xBF6C, symBinAddr: 0x10000FFC0, symSize: 0x28 }
  - { offset: 0x1D4C6, size: 0x8, addend: 0x0, symName: __ZNSt11__copy_moveILb1ELb1ESt26random_access_iterator_tagE8__copy_mIN7atcoder9mcf_graphIixE4edgeES6_EEPT0_PT_SA_S8_, symObjAddr: 0xBEB4, symBinAddr: 0x10000FF08, symSize: 0xB8 }
  - { offset: 0x1D530, size: 0x8, addend: 0x0, symName: __ZSt13__copy_move_aILb0EN9__gnu_cxx17__normal_iteratorIPKxSt6vectorIxSaIxEEEEPxET1_T0_SA_S9_, symObjAddr: 0xBE54, symBinAddr: 0x10000FEA8, symSize: 0x60 }
  - { offset: 0x1D594, size: 0x8, addend: 0x0, symName: __ZSt12__miter_baseIN9__gnu_cxx17__normal_iteratorIPKxSt6vectorIxSaIxEEEEET_S8_, symObjAddr: 0xBE40, symBinAddr: 0x10000FE94, symSize: 0x14 }
  - { offset: 0x1D5C5, size: 0x8, addend: 0x0, symName: __ZSt10_ConstructISt4pairIixEJS1_EEvPT_DpOT0_, symObjAddr: 0xBDF8, symBinAddr: 0x10000FE4C, symSize: 0x48 }
  - { offset: 0x1D611, size: 0x8, addend: 0x0, symName: __ZNKSt13move_iteratorIPSt4pairIixEEdeEv, symObjAddr: 0xBDE0, symBinAddr: 0x10000FE34, symSize: 0x18 }
  - { offset: 0x1D639, size: 0x8, addend: 0x0, symName: __ZNSt13move_iteratorIPSt4pairIixEEppEv, symObjAddr: 0xBDB8, symBinAddr: 0x10000FE0C, symSize: 0x28 }
  - { offset: 0x1D65D, size: 0x8, addend: 0x0, symName: __ZStneIPSt4pairIixEEbRKSt13move_iteratorIT_ES7_, symObjAddr: 0xBD8C, symBinAddr: 0x10000FDE0, symSize: 0x2C }
  - { offset: 0x1D69E, size: 0x8, addend: 0x0, symName: __ZSt13__copy_move_aILb1EPZN7atcoder9mcf_graphIixE5slopeERNS0_8internal3csrINS2_5_edgeEEEiiiE1QS9_ET1_T0_SB_SA_, symObjAddr: 0xBD2C, symBinAddr: 0x10000FD80, symSize: 0x60 }
  - { offset: 0x1D702, size: 0x8, addend: 0x0, symName: __ZSt12__miter_baseIPZN7atcoder9mcf_graphIixE5slopeERNS0_8internal3csrINS2_5_edgeEEEiiiE1QEDTcl12__miter_basecldtfp_4baseEEESt13move_iteratorIT_E, symObjAddr: 0xBD0C, symBinAddr: 0x10000FD60, symSize: 0x20 }
  - { offset: 0x1D733, size: 0x8, addend: 0x0, symName: __ZSt14__copy_move_a1ILb1EPiS0_ET1_T0_S2_S1_, symObjAddr: 0xBCE0, symBinAddr: 0x10000FD34, symSize: 0x2C }
  - { offset: 0x1D797, size: 0x8, addend: 0x0, symName: __ZSt12__miter_baseIPiET_S1_, symObjAddr: 0xBCCC, symBinAddr: 0x10000FD20, symSize: 0x14 }
  - { offset: 0x1D7CC, size: 0x8, addend: 0x0, symName: __ZNKSt13move_iteratorIPiE4baseEv, symObjAddr: 0xBCB4, symBinAddr: 0x10000FD08, symSize: 0x18 }
  - { offset: 0x1D7F0, size: 0x8, addend: 0x0, symName: __ZNSt11__copy_moveILb0ELb1ESt26random_access_iterator_tagE8__copy_mIKiiEEPT0_PT_S7_S5_, symObjAddr: 0xBC24, symBinAddr: 0x10000FC78, symSize: 0x90 }
  - { offset: 0x1D85A, size: 0x8, addend: 0x0, symName: __ZSt9__fill_a1IPN7atcoder9mcf_graphIixE5_edgeES3_EN9__gnu_cxx11__enable_ifIXntsrSt11__is_scalarIT0_E7__valueEvE6__typeET_SC_RKS8_, symObjAddr: 0xBBC4, symBinAddr: 0x10000FC18, symSize: 0x60 }
  - { offset: 0x1D8B4, size: 0x8, addend: 0x0, symName: __ZSt14__copy_move_a2ILb1EPN7atcoder9mcf_graphIixE4edgeES4_ET1_T0_S6_S5_, symObjAddr: 0xBB98, symBinAddr: 0x10000FBEC, symSize: 0x2C }
  - { offset: 0x1D918, size: 0x8, addend: 0x0, symName: __ZSt4copyIN9__gnu_cxx17__normal_iteratorIPKxSt6vectorIxSaIxEEEEPxET0_T_SA_S9_, symObjAddr: 0xBB50, symBinAddr: 0x10000FBA4, symSize: 0x48 }
  - { offset: 0x1D972, size: 0x8, addend: 0x0, symName: __ZNSt11__copy_moveILb0ELb0ESt26random_access_iterator_tagE12__assign_oneIN7atcoder9mcf_graphIixE4edgeEKS6_EEvPT_PT0_, symObjAddr: 0xBB18, symBinAddr: 0x10000FB6C, symSize: 0x38 }
  - { offset: 0x1D9BC, size: 0x8, addend: 0x0, symName: __ZSt16__do_uninit_copyISt13move_iteratorIPSt4pairIixEES3_ET0_T_S6_S5_, symObjAddr: 0xBA70, symBinAddr: 0x10000FAC4, symSize: 0xA8 }
  - { offset: 0x1DA22, size: 0x8, addend: 0x0, symName: __ZSt19__relocate_object_aISt4pairIixES1_SaIS1_EEvPT_PT0_RT1_, symObjAddr: 0xB9AC, symBinAddr: 0x10000FA00, symSize: 0xC4 }
  - { offset: 0x1DB48, size: 0x8, addend: 0x0, symName: __ZSt7forwardIRKSt4pairIixEEOT_RNSt16remove_referenceIS4_E4typeE, symObjAddr: 0xB998, symBinAddr: 0x10000F9EC, symSize: 0x14 }
  - { offset: 0x1DB78, size: 0x8, addend: 0x0, symName: __ZSt4copyISt13move_iteratorIPZN7atcoder9mcf_graphIixE5slopeERNS1_8internal3csrINS3_5_edgeEEEiiiE1QESA_ET0_T_SD_SC_, symObjAddr: 0xB950, symBinAddr: 0x10000F9A4, symSize: 0x48 }
  - { offset: 0x1DBE8, size: 0x8, addend: 0x0, symName: __ZSt13__copy_move_aILb1EPiS0_ET1_T0_S2_S1_, symObjAddr: 0xB8F0, symBinAddr: 0x10000F944, symSize: 0x60 }
  - { offset: 0x1DC4C, size: 0x8, addend: 0x0, symName: __ZSt12__miter_baseIPiEDTcl12__miter_basecldtfp_4baseEEESt13move_iteratorIT_E, symObjAddr: 0xB8D0, symBinAddr: 0x10000F924, symSize: 0x20 }
  - { offset: 0x1DC7D, size: 0x8, addend: 0x0, symName: __ZSt14__copy_move_a2ILb0EPKiPiET1_T0_S4_S3_, symObjAddr: 0xB8A4, symBinAddr: 0x10000F8F8, symSize: 0x2C }
  - { offset: 0x1DCE1, size: 0x8, addend: 0x0, symName: __ZSt8__fill_aIPN7atcoder9mcf_graphIixE5_edgeES3_EvT_S5_RKT0_, symObjAddr: 0xB874, symBinAddr: 0x10000F8C8, symSize: 0x30 }
  - { offset: 0x1DD3F, size: 0x8, addend: 0x0, symName: __ZNKSt13move_iteratorIPSt4pairIiN7atcoder9mcf_graphIixE5_edgeEEE4baseEv, symObjAddr: 0xB85C, symBinAddr: 0x10000F8B0, symSize: 0x18 }
  - { offset: 0x1DD63, size: 0x8, addend: 0x0, symName: __ZSt9__fill_a1IPiiEN9__gnu_cxx11__enable_ifIXsrSt11__is_scalarIT0_E7__valueEvE6__typeET_S8_RKS4_, symObjAddr: 0xB804, symBinAddr: 0x10000F858, symSize: 0x58 }
  - { offset: 0x1DDCD, size: 0x8, addend: 0x0, symName: __ZSt14__copy_move_a1ILb1EPN7atcoder9mcf_graphIixE4edgeES4_ET1_T0_S6_S5_, symObjAddr: 0xB7D8, symBinAddr: 0x10000F82C, symSize: 0x2C }
  - { offset: 0x1DE31, size: 0x8, addend: 0x0, symName: __ZSt12__miter_baseIPN7atcoder9mcf_graphIixE4edgeEET_S5_, symObjAddr: 0xB7C4, symBinAddr: 0x10000F818, symSize: 0x14 }
  - { offset: 0x1DE66, size: 0x8, addend: 0x0, symName: __ZNKSt13move_iteratorIPN7atcoder9mcf_graphIixE4edgeEE4baseEv, symObjAddr: 0xB7AC, symBinAddr: 0x10000F800, symSize: 0x18 }
  - { offset: 0x1DE8A, size: 0x8, addend: 0x0, symName: __ZNSt20__uninitialized_copyILb1EE13__uninit_copyIN9__gnu_cxx17__normal_iteratorIPKxSt6vectorIxSaIxEEEEPxEET0_T_SC_SB_, symObjAddr: 0xB780, symBinAddr: 0x10000F7D4, symSize: 0x2C }
  - { offset: 0x1DEE1, size: 0x8, addend: 0x0, symName: __ZNSt11__copy_moveILb0ELb1ESt26random_access_iterator_tagE8__copy_mIKN7atcoder9mcf_graphIixE4edgeES6_EEPT0_PT_SB_S9_, symObjAddr: 0xB6C8, symBinAddr: 0x10000F71C, symSize: 0xB8 }
  - { offset: 0x1DF4B, size: 0x8, addend: 0x0, symName: __ZNSt20__uninitialized_copyILb0EE13__uninit_copyISt13move_iteratorIPSt4pairIixEES5_EET0_T_S8_S7_, symObjAddr: 0xB69C, symBinAddr: 0x10000F6F0, symSize: 0x2C }
  - { offset: 0x1DFAE, size: 0x8, addend: 0x0, symName: __ZSt4moveIRPSt4pairIixEEONSt16remove_referenceIT_E4typeEOS5_, symObjAddr: 0xB688, symBinAddr: 0x10000F6DC, symSize: 0x14 }
  - { offset: 0x1DFDE, size: 0x8, addend: 0x0, symName: __ZSt14__relocate_a_1IPSt4pairIixES2_SaIS1_EET0_T_S5_S4_RT1_, symObjAddr: 0xB604, symBinAddr: 0x10000F658, symSize: 0x84 }
  - { offset: 0x1E061, size: 0x8, addend: 0x0, symName: __ZSt12__niter_baseIPSt4pairIixEET_S3_, symObjAddr: 0xB5F0, symBinAddr: 0x10000F644, symSize: 0x14 }
  - { offset: 0x1E092, size: 0x8, addend: 0x0, symName: __ZSt10_ConstructISt4pairIixEJRKS1_EEvPT_DpOT0_, symObjAddr: 0xB5A8, symBinAddr: 0x10000F5FC, symSize: 0x48 }
  - { offset: 0x1E0DA, size: 0x8, addend: 0x0, symName: __ZSt11__addressofISt4pairIixEEPT_RS2_, symObjAddr: 0xB594, symBinAddr: 0x10000F5E8, symSize: 0x14 }
  - { offset: 0x1E10A, size: 0x8, addend: 0x0, symName: __ZNSt20__uninitialized_copyILb1EE13__uninit_copyISt13move_iteratorIPZN7atcoder9mcf_graphIixE5slopeERNS3_8internal3csrINS5_5_edgeEEEiiiE1QESC_EET0_T_SF_SE_, symObjAddr: 0xB568, symBinAddr: 0x10000F5BC, symSize: 0x2C }
  - { offset: 0x1E161, size: 0x8, addend: 0x0, symName: __ZSt4moveIRPZN7atcoder9mcf_graphIixE5slopeERNS0_8internal3csrINS2_5_edgeEEEiiiE1QEONSt16remove_referenceIT_E4typeEOSC_, symObjAddr: 0xB554, symBinAddr: 0x10000F5A8, symSize: 0x14 }
  - { offset: 0x1E191, size: 0x8, addend: 0x0, symName: __ZSt14__relocate_a_1IZN7atcoder9mcf_graphIixE5slopeERNS0_8internal3csrINS2_5_edgeEEEiiiE1QS8_ENSt9enable_ifIXsrSt24__is_bitwise_relocatableIT_vE5valueEPSB_E4typeESD_SD_SD_RSaIT0_E, symObjAddr: 0xB4F0, symBinAddr: 0x10000F544, symSize: 0x64 }
  - { offset: 0x1E20B, size: 0x8, addend: 0x0, symName: __ZSt12__niter_baseIPZN7atcoder9mcf_graphIixE5slopeERNS0_8internal3csrINS2_5_edgeEEEiiiE1QET_SA_, symObjAddr: 0xB4DC, symBinAddr: 0x10000F530, symSize: 0x14 }
  - { offset: 0x1E252, size: 0x8, addend: 0x0, symName: __ZSt4copyISt13move_iteratorIPiES1_ET0_T_S4_S3_, symObjAddr: 0xB494, symBinAddr: 0x10000F4E8, symSize: 0x48 }
  - { offset: 0x1E2DD, size: 0x8, addend: 0x0, symName: __ZNSt4pairIxxEC1IxxLb1EEEv, symObjAddr: 0xB470, symBinAddr: 0x10000F4C4, symSize: 0x24 }
  - { offset: 0x1E30F, size: 0x8, addend: 0x0, symName: __ZSt12__niter_wrapIPiET_RKS1_S1_, symObjAddr: 0xB458, symBinAddr: 0x10000F4AC, symSize: 0x18 }
  - { offset: 0x1E348, size: 0x8, addend: 0x0, symName: __ZSt14__copy_move_a1ILb0EPKiPiET1_T0_S4_S3_, symObjAddr: 0xB42C, symBinAddr: 0x10000F480, symSize: 0x2C }
  - { offset: 0x1E3AC, size: 0x8, addend: 0x0, symName: __ZSt12__niter_baseIPKiSt6vectorIiSaIiEEET_N9__gnu_cxx17__normal_iteratorIS5_T0_EE, symObjAddr: 0xB40C, symBinAddr: 0x10000F460, symSize: 0x20 }
  - { offset: 0x1E3E6, size: 0x8, addend: 0x0, symName: __ZSt10__fill_n_aIPN7atcoder9mcf_graphIixE5_edgeEmS3_ET_S5_T0_RKT1_St26random_access_iterator_tag, symObjAddr: 0xB388, symBinAddr: 0x10000F3DC, symSize: 0x84 }
  - { offset: 0x1E473, size: 0x8, addend: 0x0, symName: __ZSteqIPSt4pairIiN7atcoder9mcf_graphIixE5_edgeEEEbRKSt13move_iteratorIT_ESB_, symObjAddr: 0xB348, symBinAddr: 0x10000F39C, symSize: 0x40 }
  - { offset: 0x1E4E0, size: 0x8, addend: 0x0, symName: __ZSt8__fill_aIPiiEvT_S1_RKT0_, symObjAddr: 0xB318, symBinAddr: 0x10000F36C, symSize: 0x30 }
  - { offset: 0x1E53A, size: 0x8, addend: 0x0, symName: __ZSt13__copy_move_aILb1EPN7atcoder9mcf_graphIixE4edgeES4_ET1_T0_S6_S5_, symObjAddr: 0xB2B8, symBinAddr: 0x10000F30C, symSize: 0x60 }
  - { offset: 0x1E59E, size: 0x8, addend: 0x0, symName: __ZSt12__miter_baseIPN7atcoder9mcf_graphIixE4edgeEEDTcl12__miter_basecldtfp_4baseEEESt13move_iteratorIT_E, symObjAddr: 0xB298, symBinAddr: 0x10000F2EC, symSize: 0x20 }
  - { offset: 0x1E5CF, size: 0x8, addend: 0x0, symName: __ZSt18uninitialized_copyIN9__gnu_cxx17__normal_iteratorIPKxSt6vectorIxSaIxEEEEPxET0_T_SA_S9_, symObjAddr: 0xB25C, symBinAddr: 0x10000F2B0, symSize: 0x3C }
  - { offset: 0x1E671, size: 0x8, addend: 0x0, symName: __ZN9__gnu_cxx17__normal_iteratorIPKxSt6vectorIxSaIxEEEC1ERKS2_, symObjAddr: 0xB234, symBinAddr: 0x10000F288, symSize: 0x28 }
  - { offset: 0x1E6AF, size: 0x8, addend: 0x0, symName: __ZSt14__copy_move_a2ILb0EPKN7atcoder9mcf_graphIixE4edgeEPS3_ET1_T0_S8_S7_, symObjAddr: 0xB208, symBinAddr: 0x10000F25C, symSize: 0x2C }
  - { offset: 0x1E713, size: 0x8, addend: 0x0, symName: __ZSt18uninitialized_copyISt13move_iteratorIPSt4pairIixEES3_ET0_T_S6_S5_, symObjAddr: 0xB1D4, symBinAddr: 0x10000F228, symSize: 0x34 }
  - { offset: 0x1E7B5, size: 0x8, addend: 0x0, symName: __ZNSt13move_iteratorIPSt4pairIixEEC1ES2_, symObjAddr: 0xB1A4, symBinAddr: 0x10000F1F8, symSize: 0x30 }
  - { offset: 0x1E7DD, size: 0x8, addend: 0x0, symName: __ZSt12__relocate_aIPSt4pairIixES2_SaIS1_EET0_T_S5_S4_RT1_, symObjAddr: 0xB148, symBinAddr: 0x10000F19C, symSize: 0x5C }
  - { offset: 0x1E854, size: 0x8, addend: 0x0, symName: __ZNKSt12_Vector_baseISt4pairIixESaIS1_EE19_M_get_Tp_allocatorEv, symObjAddr: 0xB134, symBinAddr: 0x10000F188, symSize: 0x14 }
  - { offset: 0x1E878, size: 0x8, addend: 0x0, symName: __ZSt16__do_uninit_copyIPKSt4pairIixEPS1_ET0_T_S6_S5_, symObjAddr: 0xB0D0, symBinAddr: 0x10000F124, symSize: 0x64 }
  - { offset: 0x1E8F4, size: 0x8, addend: 0x0, symName: __ZSt18uninitialized_copyISt13move_iteratorIPZN7atcoder9mcf_graphIixE5slopeERNS1_8internal3csrINS3_5_edgeEEEiiiE1QESA_ET0_T_SD_SC_, symObjAddr: 0xB094, symBinAddr: 0x10000F0E8, symSize: 0x3C }
  - { offset: 0x1E996, size: 0x8, addend: 0x0, symName: __ZNSt13move_iteratorIPZN7atcoder9mcf_graphIixE5slopeERNS0_8internal3csrINS2_5_edgeEEEiiiE1QEC1ES9_, symObjAddr: 0xB064, symBinAddr: 0x10000F0B8, symSize: 0x30 }
  - { offset: 0x1E9BE, size: 0x8, addend: 0x0, symName: __ZSt12__relocate_aIPZN7atcoder9mcf_graphIixE5slopeERNS0_8internal3csrINS2_5_edgeEEEiiiE1QS9_SaIS8_EET0_T_SC_SB_RT1_, symObjAddr: 0xB008, symBinAddr: 0x10000F05C, symSize: 0x5C }
  - { offset: 0x1EA35, size: 0x8, addend: 0x0, symName: __ZNSt15__new_allocatorIZN7atcoder9mcf_graphIixE5slopeERNS0_8internal3csrINS2_5_edgeEEEiiiE1QE8allocateEmPKv, symObjAddr: 0xAF90, symBinAddr: 0x10000EFE4, symSize: 0x78 }
  - { offset: 0x1EAAC, size: 0x8, addend: 0x0, symName: __ZNKSt12_Vector_baseIZN7atcoder9mcf_graphIixE5slopeERNS0_8internal3csrINS2_5_edgeEEEiiiE1QSaIS8_EE19_M_get_Tp_allocatorEv, symObjAddr: 0xAF7C, symBinAddr: 0x10000EFD0, symSize: 0x14 }
  - { offset: 0x1EAD0, size: 0x8, addend: 0x0, symName: __ZNSt6vectorIZN7atcoder9mcf_graphIixE5slopeERNS0_8internal3csrINS2_5_edgeEEEiiiE1QSaIS8_EE11_S_max_sizeERKS9_, symObjAddr: 0xAF28, symBinAddr: 0x10000EF7C, symSize: 0x54 }
  - { offset: 0x1EB7E, size: 0x8, addend: 0x0, symName: __ZNSt20__uninitialized_copyILb1EE13__uninit_copyISt13move_iteratorIPiES3_EET0_T_S6_S5_, symObjAddr: 0xAEFC, symBinAddr: 0x10000EF50, symSize: 0x2C }
  - { offset: 0x1EBE1, size: 0x8, addend: 0x0, symName: __ZSt4moveIRPiEONSt16remove_referenceIT_E4typeEOS3_, symObjAddr: 0xAEE8, symBinAddr: 0x10000EF3C, symSize: 0x14 }
  - { offset: 0x1EC11, size: 0x8, addend: 0x0, symName: __ZSt14__relocate_a_1IiiENSt9enable_ifIXsrSt24__is_bitwise_relocatableIT_vE5valueEPS2_E4typeES4_S4_S4_RSaIT0_E, symObjAddr: 0xAE84, symBinAddr: 0x10000EED8, symSize: 0x64 }
  - { offset: 0x1EC8B, size: 0x8, addend: 0x0, symName: __ZSt12__niter_baseIPiET_S1_, symObjAddr: 0xAE70, symBinAddr: 0x10000EEC4, symSize: 0x14 }
  - { offset: 0x1ECC0, size: 0x8, addend: 0x0, symName: __ZNSt15__new_allocatorImE8allocateEmPKv, symObjAddr: 0xADF8, symBinAddr: 0x10000EE4C, symSize: 0x78 }
  - { offset: 0x1ED4E, size: 0x8, addend: 0x0, symName: __ZSt10_ConstructISt4pairIxxEJEEvPT_DpOT0_, symObjAddr: 0xADCC, symBinAddr: 0x10000EE20, symSize: 0x2C }
  - { offset: 0x1ED88, size: 0x8, addend: 0x0, symName: __ZSt11__addressofISt4pairIxxEEPT_RS2_, symObjAddr: 0xADB8, symBinAddr: 0x10000EE0C, symSize: 0x14 }
  - { offset: 0x1EDBC, size: 0x8, addend: 0x0, symName: __ZNSt15__new_allocatorISt4pairIxxEE8allocateEmPKv, symObjAddr: 0xAD40, symBinAddr: 0x10000ED94, symSize: 0x78 }
  - { offset: 0x1EE2F, size: 0x8, addend: 0x0, symName: __ZSt13__copy_move_aILb0EN9__gnu_cxx17__normal_iteratorIPKiSt6vectorIiSaIiEEEEPiET1_T0_SA_S9_, symObjAddr: 0xACE0, symBinAddr: 0x10000ED34, symSize: 0x60 }
  - { offset: 0x1EE93, size: 0x8, addend: 0x0, symName: __ZSt12__miter_baseIN9__gnu_cxx17__normal_iteratorIPKiSt6vectorIiSaIiEEEEET_S8_, symObjAddr: 0xACCC, symBinAddr: 0x10000ED20, symSize: 0x14 }
  - { offset: 0x1EEC4, size: 0x8, addend: 0x0, symName: __ZSt6fill_nIPN7atcoder9mcf_graphIixE5_edgeEmS3_ET_S5_T0_RKT1_, symObjAddr: 0xAC84, symBinAddr: 0x10000ECD8, symSize: 0x48 }
  - { offset: 0x1EF47, size: 0x8, addend: 0x0, symName: __ZSt10_ConstructIN7atcoder9mcf_graphIixE5_edgeEJEEvPT_DpOT0_, symObjAddr: 0xAC4C, symBinAddr: 0x10000ECA0, symSize: 0x38 }
  - { offset: 0x1EF81, size: 0x8, addend: 0x0, symName: __ZSt11__addressofIN7atcoder9mcf_graphIixE5_edgeEEPT_RS4_, symObjAddr: 0xAC38, symBinAddr: 0x10000EC8C, symSize: 0x14 }
  - { offset: 0x1EFB5, size: 0x8, addend: 0x0, symName: __ZNSt15__new_allocatorIN7atcoder9mcf_graphIixE5_edgeEE8allocateEmPKv, symObjAddr: 0xABAC, symBinAddr: 0x10000EC00, symSize: 0x8C }
  - { offset: 0x1F028, size: 0x8, addend: 0x0, symName: __ZSt10_ConstructISt4pairIiN7atcoder9mcf_graphIixE5_edgeEEJS5_EEvPT_DpOT0_, symObjAddr: 0xAB54, symBinAddr: 0x10000EBA8, symSize: 0x58 }
  - { offset: 0x1F074, size: 0x8, addend: 0x0, symName: __ZNKSt13move_iteratorIPSt4pairIiN7atcoder9mcf_graphIixE5_edgeEEEdeEv, symObjAddr: 0xAB3C, symBinAddr: 0x10000EB90, symSize: 0x18 }
  - { offset: 0x1F09C, size: 0x8, addend: 0x0, symName: __ZNSt13move_iteratorIPSt4pairIiN7atcoder9mcf_graphIixE5_edgeEEEppEv, symObjAddr: 0xAB14, symBinAddr: 0x10000EB68, symSize: 0x28 }
  - { offset: 0x1F0C0, size: 0x8, addend: 0x0, symName: __ZStneIPSt4pairIiN7atcoder9mcf_graphIixE5_edgeEEEbRKSt13move_iteratorIT_ESB_, symObjAddr: 0xAAE8, symBinAddr: 0x10000EB3C, symSize: 0x2C }
  - { offset: 0x1F12E, size: 0x8, addend: 0x0, symName: __ZSt10__fill_n_aIPimiET_S1_T0_RKT1_St26random_access_iterator_tag, symObjAddr: 0xAA84, symBinAddr: 0x10000EAD8, symSize: 0x64 }
  - { offset: 0x1F1AF, size: 0x8, addend: 0x0, symName: __ZSt4copyISt13move_iteratorIPN7atcoder9mcf_graphIixE4edgeEES5_ET0_T_S8_S7_, symObjAddr: 0xAA3C, symBinAddr: 0x10000EA90, symSize: 0x48 }
  - { offset: 0x1F21F, size: 0x8, addend: 0x0, symName: __ZSt22__uninitialized_copy_aIN9__gnu_cxx17__normal_iteratorIPKxSt6vectorIxSaIxEEEEPxxET0_T_SA_S9_RSaIT1_E, symObjAddr: 0xAA0C, symBinAddr: 0x10000EA60, symSize: 0x30 }
  - { offset: 0x1F28E, size: 0x8, addend: 0x0, symName: __ZNKSt6vectorIxSaIxEE3endEv, symObjAddr: 0xA9E4, symBinAddr: 0x10000EA38, symSize: 0x28 }
  - { offset: 0x1F2B6, size: 0x8, addend: 0x0, symName: __ZNKSt6vectorIxSaIxEE5beginEv, symObjAddr: 0xA9C0, symBinAddr: 0x10000EA14, symSize: 0x24 }
  - { offset: 0x1F2F3, size: 0x8, addend: 0x0, symName: __ZNKSt12_Vector_baseIxSaIxEE19_M_get_Tp_allocatorEv, symObjAddr: 0xA9AC, symBinAddr: 0x10000EA00, symSize: 0x14 }
  - { offset: 0x1F31B, size: 0x8, addend: 0x0, symName: __ZNKSt6vectorIxSaIxEE4sizeEv, symObjAddr: 0xA984, symBinAddr: 0x10000E9D8, symSize: 0x28 }
  - { offset: 0x1F33F, size: 0x8, addend: 0x0, symName: __ZSt9__fill_a1IPxxEN9__gnu_cxx11__enable_ifIXsrSt11__is_scalarIT0_E7__valueEvE6__typeET_S8_RKS4_, symObjAddr: 0xA92C, symBinAddr: 0x10000E980, symSize: 0x58 }
  - { offset: 0x1F3A9, size: 0x8, addend: 0x0, symName: __ZSt12__niter_wrapIPN7atcoder9mcf_graphIixE4edgeEET_RKS5_S5_, symObjAddr: 0xA914, symBinAddr: 0x10000E968, symSize: 0x18 }
  - { offset: 0x1F3E2, size: 0x8, addend: 0x0, symName: __ZSt14__copy_move_a1ILb0EPKN7atcoder9mcf_graphIixE4edgeEPS3_ET1_T0_S8_S7_, symObjAddr: 0xA8E8, symBinAddr: 0x10000E93C, symSize: 0x2C }
  - { offset: 0x1F446, size: 0x8, addend: 0x0, symName: __ZSt12__niter_baseIPKN7atcoder9mcf_graphIixE4edgeESt6vectorIS3_SaIS3_EEET_N9__gnu_cxx17__normal_iteratorIS9_T0_EE, symObjAddr: 0xA8C8, symBinAddr: 0x10000E91C, symSize: 0x20 }
  - { offset: 0x1F486, size: 0x8, addend: 0x0, symName: __ZSt7forwardIRKNSt7__cxx1112basic_stringIcSt11char_traitsIcESaIcEEEEOT_RNSt16remove_referenceIS8_E4typeE, symObjAddr: 0xA8B4, symBinAddr: 0x10000E908, symSize: 0x14 }
  - { offset: 0x1F4B6, size: 0x8, addend: 0x0, symName: __ZSt22__uninitialized_copy_aISt13move_iteratorIPSt4pairIixEES3_S2_ET0_T_S6_S5_RSaIT1_E, symObjAddr: 0xA884, symBinAddr: 0x10000E8D8, symSize: 0x30 }
  - { offset: 0x1F521, size: 0x8, addend: 0x0, symName: __ZSt32__make_move_if_noexcept_iteratorISt4pairIixESt13move_iteratorIPS1_EET0_PT_, symObjAddr: 0xA860, symBinAddr: 0x10000E8B4, symSize: 0x24 }
  - { offset: 0x1F55B, size: 0x8, addend: 0x0, symName: __ZNSt6vectorISt4pairIixESaIS1_EE14_S_do_relocateEPS1_S4_S4_RS2_St17integral_constantIbLb1EE, symObjAddr: 0xA828, symBinAddr: 0x10000E87C, symSize: 0x38 }
  - { offset: 0x1F5BF, size: 0x8, addend: 0x0, symName: __ZNK9__gnu_cxx17__normal_iteratorIPSt4pairIixESt6vectorIS2_SaIS2_EEE4baseEv, symObjAddr: 0xA814, symBinAddr: 0x10000E868, symSize: 0x14 }
  - { offset: 0x1F5E7, size: 0x8, addend: 0x0, symName: __ZNKSt6vectorISt4pairIixESaIS1_EE4sizeEv, symObjAddr: 0xA7EC, symBinAddr: 0x10000E840, symSize: 0x28 }
  - { offset: 0x1F60F, size: 0x8, addend: 0x0, symName: __ZNKSt6vectorISt4pairIixESaIS1_EE8max_sizeEv, symObjAddr: 0xA7CC, symBinAddr: 0x10000E820, symSize: 0x20 }
  - { offset: 0x1F633, size: 0x8, addend: 0x0, symName: __ZNSt20__uninitialized_copyILb0EE13__uninit_copyIPKSt4pairIixEPS3_EET0_T_S8_S7_, symObjAddr: 0xA7A0, symBinAddr: 0x10000E7F4, symSize: 0x2C }
  - { offset: 0x1F68E, size: 0x8, addend: 0x0, symName: __ZNSt15__new_allocatorISt4pairIixEE8allocateEmPKv, symObjAddr: 0xA728, symBinAddr: 0x10000E77C, symSize: 0x78 }
  - { offset: 0x1F717, size: 0x8, addend: 0x0, symName: __ZSt22__uninitialized_copy_aISt13move_iteratorIPZN7atcoder9mcf_graphIixE5slopeERNS1_8internal3csrINS3_5_edgeEEEiiiE1QESA_S9_ET0_T_SD_SC_RSaIT1_E, symObjAddr: 0xA6F8, symBinAddr: 0x10000E74C, symSize: 0x30 }
  - { offset: 0x1F782, size: 0x8, addend: 0x0, symName: __ZSt32__make_move_if_noexcept_iteratorIZN7atcoder9mcf_graphIixE5slopeERNS0_8internal3csrINS2_5_edgeEEEiiiE1QSt13move_iteratorIPS8_EET0_PT_, symObjAddr: 0xA6D4, symBinAddr: 0x10000E728, symSize: 0x24 }
  - { offset: 0x1F7BC, size: 0x8, addend: 0x0, symName: __ZNSt6vectorIZN7atcoder9mcf_graphIixE5slopeERNS0_8internal3csrINS2_5_edgeEEEiiiE1QSaIS8_EE14_S_do_relocateEPS8_SB_SB_RS9_St17integral_constantIbLb1EE, symObjAddr: 0xA69C, symBinAddr: 0x10000E6F0, symSize: 0x38 }
  - { offset: 0x1F844, size: 0x8, addend: 0x0, symName: __ZNKSt6vectorIZN7atcoder9mcf_graphIixE5slopeERNS0_8internal3csrINS2_5_edgeEEEiiiE1QSaIS8_EE8max_sizeEv, symObjAddr: 0xA67C, symBinAddr: 0x10000E6D0, symSize: 0x20 }
  - { offset: 0x1F868, size: 0x8, addend: 0x0, symName: __ZSt18uninitialized_copyISt13move_iteratorIPiES1_ET0_T_S4_S3_, symObjAddr: 0xA640, symBinAddr: 0x10000E694, symSize: 0x3C }
  - { offset: 0x1F90A, size: 0x8, addend: 0x0, symName: __ZNSt13move_iteratorIPiEC1ES0_, symObjAddr: 0xA610, symBinAddr: 0x10000E664, symSize: 0x30 }
  - { offset: 0x1F932, size: 0x8, addend: 0x0, symName: __ZSt12__relocate_aIPiS0_SaIiEET0_T_S3_S2_RT1_, symObjAddr: 0xA5B4, symBinAddr: 0x10000E608, symSize: 0x5C }
  - { offset: 0x1F9E8, size: 0x8, addend: 0x0, symName: __ZNSt13_Bvector_baseISaIbEE18_Bvector_impl_dataC1Ev, symObjAddr: 0xA580, symBinAddr: 0x10000E5D4, symSize: 0x34 }
  - { offset: 0x1FA11, size: 0x8, addend: 0x0, symName: __ZNSt13_Bvector_baseISaIbEE18_Bvector_impl_dataC2Ev, symObjAddr: 0xA54C, symBinAddr: 0x10000E5A0, symSize: 0x34 }
  - { offset: 0x1FA54, size: 0x8, addend: 0x0, symName: __ZNSt27__uninitialized_default_n_1ILb0EE18__uninit_default_nIPSt4pairIxxEmEET_S5_T0_, symObjAddr: 0xA4C4, symBinAddr: 0x10000E518, symSize: 0x88 }
  - { offset: 0x1FAB2, size: 0x8, addend: 0x0, symName: __ZNSt15__new_allocatorISt4pairIxxEE10deallocateEPS1_m, symObjAddr: 0xA490, symBinAddr: 0x10000E4E4, symSize: 0x34 }
  - { offset: 0x1FB2E, size: 0x8, addend: 0x0, symName: __ZSt4copyIN9__gnu_cxx17__normal_iteratorIPKiSt6vectorIiSaIiEEEEPiET0_T_SA_S9_, symObjAddr: 0xA448, symBinAddr: 0x10000E49C, symSize: 0x48 }
  - { offset: 0x1FB88, size: 0x8, addend: 0x0, symName: __ZNSt27__uninitialized_default_n_1ILb1EE18__uninit_default_nIPN7atcoder9mcf_graphIixE5_edgeEmEET_S7_T0_, symObjAddr: 0xA3E4, symBinAddr: 0x10000E438, symSize: 0x64 }
  - { offset: 0x1FC35, size: 0x8, addend: 0x0, symName: __ZSt16__do_uninit_copyISt13move_iteratorIPSt4pairIiN7atcoder9mcf_graphIixE5_edgeEEES7_ET0_T_SA_S9_, symObjAddr: 0xA33C, symBinAddr: 0x10000E390, symSize: 0xA8 }
  - { offset: 0x1FC9B, size: 0x8, addend: 0x0, symName: __ZSt19__relocate_object_aISt4pairIiN7atcoder9mcf_graphIixE5_edgeEES5_SaIS5_EEvPT_PT0_RT1_, symObjAddr: 0xA268, symBinAddr: 0x10000E2BC, symSize: 0xD4 }
  - { offset: 0x1FDBB, size: 0x8, addend: 0x0, symName: __ZSt11__addressofISt4pairIiN7atcoder9mcf_graphIixE5_edgeEEEPT_RS6_, symObjAddr: 0xA254, symBinAddr: 0x10000E2A8, symSize: 0x14 }
  - { offset: 0x1FDEB, size: 0x8, addend: 0x0, symName: __ZSt6fill_nIPimiET_S1_T0_RKT1_, symObjAddr: 0xA20C, symBinAddr: 0x10000E260, symSize: 0x48 }
  - { offset: 0x1FE6E, size: 0x8, addend: 0x0, symName: __ZSt10_ConstructIiJEEvPT_DpOT0_, symObjAddr: 0xA1E0, symBinAddr: 0x10000E234, symSize: 0x2C }
  - { offset: 0x1FEA8, size: 0x8, addend: 0x0, symName: __ZSt11__addressofIiEPT_RS0_, symObjAddr: 0xA1CC, symBinAddr: 0x10000E220, symSize: 0x14 }
  - { offset: 0x1FEDC, size: 0x8, addend: 0x0, symName: __ZNSt15__new_allocatorIiE8allocateEmPKv, symObjAddr: 0xA154, symBinAddr: 0x10000E1A8, symSize: 0x78 }
  - { offset: 0x1FF4F, size: 0x8, addend: 0x0, symName: __ZNSt20__uninitialized_copyILb1EE13__uninit_copyISt13move_iteratorIPN7atcoder9mcf_graphIixE4edgeEES7_EET0_T_SA_S9_, symObjAddr: 0xA128, symBinAddr: 0x10000E17C, symSize: 0x2C }
  - { offset: 0x1FFB2, size: 0x8, addend: 0x0, symName: __ZSt4moveIRPN7atcoder9mcf_graphIixE4edgeEEONSt16remove_referenceIT_E4typeEOS7_, symObjAddr: 0xA114, symBinAddr: 0x10000E168, symSize: 0x14 }
  - { offset: 0x1FFE2, size: 0x8, addend: 0x0, symName: __ZSt14__relocate_a_1IN7atcoder9mcf_graphIixE4edgeES3_ENSt9enable_ifIXsrSt24__is_bitwise_relocatableIT_vE5valueEPS6_E4typeES8_S8_S8_RSaIT0_E, symObjAddr: 0xA084, symBinAddr: 0x10000E0D8, symSize: 0x90 }
  - { offset: 0x2005C, size: 0x8, addend: 0x0, symName: __ZSt12__niter_baseIPN7atcoder9mcf_graphIixE4edgeEET_S5_, symObjAddr: 0xA070, symBinAddr: 0x10000E0C4, symSize: 0x14 }
  - { offset: 0x200D0, size: 0x8, addend: 0x0, symName: __ZNSt6vectorIxSaIxEEC1ERKS1_, symObjAddr: 0x9F5C, symBinAddr: 0x10000DFB0, symSize: 0x114 }
  - { offset: 0x201D8, size: 0x8, addend: 0x0, symName: __ZSt7forwardIRKSt6vectorIxSaIxEEEOT_RNSt16remove_referenceIS5_E4typeE, symObjAddr: 0x9F48, symBinAddr: 0x10000DF9C, symSize: 0x14 }
  - { offset: 0x20208, size: 0x8, addend: 0x0, symName: __ZSt8__fill_aIPxxEvT_S1_RKT0_, symObjAddr: 0x9F18, symBinAddr: 0x10000DF6C, symSize: 0x30 }
  - { offset: 0x20262, size: 0x8, addend: 0x0, symName: __ZSt13__copy_move_aILb0EN9__gnu_cxx17__normal_iteratorIPKN7atcoder9mcf_graphIixE4edgeESt6vectorIS5_SaIS5_EEEEPS5_ET1_T0_SE_SD_, symObjAddr: 0x9EB8, symBinAddr: 0x10000DF0C, symSize: 0x60 }
  - { offset: 0x202C6, size: 0x8, addend: 0x0, symName: __ZSt12__miter_baseIN9__gnu_cxx17__normal_iteratorIPKN7atcoder9mcf_graphIixE4edgeESt6vectorIS5_SaIS5_EEEEET_SC_, symObjAddr: 0x9EA4, symBinAddr: 0x10000DEF8, symSize: 0x14 }
  - { offset: 0x202F7, size: 0x8, addend: 0x0, symName: __ZSt10_ConstructINSt7__cxx1112basic_stringIcSt11char_traitsIcESaIcEEEJRKS5_EEvPT_DpOT0_, symObjAddr: 0x9E28, symBinAddr: 0x10000DE7C, symSize: 0x7C }
  - { offset: 0x2033F, size: 0x8, addend: 0x0, symName: __ZSt34__uninitialized_move_if_noexcept_aIPSt4pairIixES2_SaIS1_EET0_T_S5_S4_RT1_, symObjAddr: 0x9DD8, symBinAddr: 0x10000DE2C, symSize: 0x50 }
  - { offset: 0x203B2, size: 0x8, addend: 0x0, symName: __ZNSt6vectorISt4pairIixESaIS1_EE11_S_relocateEPS1_S4_S4_RS2_, symObjAddr: 0x9DA4, symBinAddr: 0x10000DDF8, symSize: 0x34 }
  - { offset: 0x2040A, size: 0x8, addend: 0x0, symName: __ZSt12__to_addressISt4pairIixEEPT_S3_, symObjAddr: 0x9D90, symBinAddr: 0x10000DDE4, symSize: 0x14 }
  - { offset: 0x20440, size: 0x8, addend: 0x0, symName: __ZN9__gnu_cxxmiIPSt4pairIixESt6vectorIS2_SaIS2_EEEENS_17__normal_iteratorIT_T0_E15difference_typeERKSA_SD_, symObjAddr: 0x9D50, symBinAddr: 0x10000DDA4, symSize: 0x40 }
  - { offset: 0x2048E, size: 0x8, addend: 0x0, symName: __ZNSt6vectorISt4pairIixESaIS1_EE5beginEv, symObjAddr: 0x9D2C, symBinAddr: 0x10000DD80, symSize: 0x24 }
  - { offset: 0x204B6, size: 0x8, addend: 0x0, symName: __ZNKSt6vectorISt4pairIixESaIS1_EE12_M_check_lenEmPKc, symObjAddr: 0x9C5C, symBinAddr: 0x10000DCB0, symSize: 0xD0 }
  - { offset: 0x2054B, size: 0x8, addend: 0x0, symName: __ZSt18uninitialized_copyIPKSt4pairIixEPS1_ET0_T_S6_S5_, symObjAddr: 0x9C28, symBinAddr: 0x10000DC7C, symSize: 0x34 }
  - { offset: 0x205E4, size: 0x8, addend: 0x0, symName: __ZNSt6vectorISt4pairIixESaIS1_EE11_S_max_sizeERKS2_, symObjAddr: 0x9BD4, symBinAddr: 0x10000DC28, symSize: 0x54 }
  - { offset: 0x206FD, size: 0x8, addend: 0x0, symName: __ZNSt12_Vector_baseISt4pairIixESaIS1_EE17_Vector_impl_dataC2Ev, symObjAddr: 0x9BA8, symBinAddr: 0x10000DBFC, symSize: 0x2C }
  - { offset: 0x2071D, size: 0x8, addend: 0x0, symName: __ZSt34__uninitialized_move_if_noexcept_aIPZN7atcoder9mcf_graphIixE5slopeERNS0_8internal3csrINS2_5_edgeEEEiiiE1QS9_SaIS8_EET0_T_SC_SB_RT1_, symObjAddr: 0x9B58, symBinAddr: 0x10000DBAC, symSize: 0x50 }
  - { offset: 0x20790, size: 0x8, addend: 0x0, symName: __ZNSt6vectorIZN7atcoder9mcf_graphIixE5slopeERNS0_8internal3csrINS2_5_edgeEEEiiiE1QSaIS8_EE11_S_relocateEPS8_SB_SB_RS9_, symObjAddr: 0x9B24, symBinAddr: 0x10000DB78, symSize: 0x34 }
  - { offset: 0x207E8, size: 0x8, addend: 0x0, symName: __ZSt12__to_addressIZN7atcoder9mcf_graphIixE5slopeERNS0_8internal3csrINS2_5_edgeEEEiiiE1QEPT_SA_, symObjAddr: 0x9B10, symBinAddr: 0x10000DB64, symSize: 0x14 }
  - { offset: 0x2081C, size: 0x8, addend: 0x0, symName: __ZNSt12_Vector_baseIZN7atcoder9mcf_graphIixE5slopeERNS0_8internal3csrINS2_5_edgeEEEiiiE1QSaIS8_EE11_M_allocateEm, symObjAddr: 0x9AC0, symBinAddr: 0x10000DB14, symSize: 0x50 }
  - { offset: 0x2087E, size: 0x8, addend: 0x0, symName: __ZNKSt6vectorIZN7atcoder9mcf_graphIixE5slopeERNS0_8internal3csrINS2_5_edgeEEEiiiE1QSaIS8_EE12_M_check_lenEmPKc, symObjAddr: 0x99F0, symBinAddr: 0x10000DA44, symSize: 0xD0 }
  - { offset: 0x2091F, size: 0x8, addend: 0x0, symName: __ZSt4moveIRN9__gnu_cxx5__ops15_Iter_less_iterEEONSt16remove_referenceIT_E4typeEOS5_, symObjAddr: 0x99DC, symBinAddr: 0x10000DA30, symSize: 0x14 }
  - { offset: 0x2095E, size: 0x8, addend: 0x0, symName: __ZNK9__gnu_cxx5__ops15_Iter_less_iterclINS_17__normal_iteratorIPZN7atcoder9mcf_graphIixE5slopeERNS4_8internal3csrINS6_5_edgeEEEiiiE1QSt6vectorISC_SaISC_EEEESH_EEbT_T0_, symObjAddr: 0x9998, symBinAddr: 0x10000D9EC, symSize: 0x44 }
  - { offset: 0x209B2, size: 0x8, addend: 0x0, symName: __ZSt22__uninitialized_copy_aISt13move_iteratorIPiES1_iET0_T_S4_S3_RSaIT1_E, symObjAddr: 0x9968, symBinAddr: 0x10000D9BC, symSize: 0x30 }
  - { offset: 0x20A1D, size: 0x8, addend: 0x0, symName: __ZSt32__make_move_if_noexcept_iteratorIiSt13move_iteratorIPiEET0_PT_, symObjAddr: 0x9944, symBinAddr: 0x10000D998, symSize: 0x24 }
  - { offset: 0x20A57, size: 0x8, addend: 0x0, symName: __ZNSt6vectorIiSaIiEE14_S_do_relocateEPiS2_S2_RS0_St17integral_constantIbLb1EE, symObjAddr: 0x990C, symBinAddr: 0x10000D960, symSize: 0x38 }
  - { offset: 0x20ABB, size: 0x8, addend: 0x0, symName: __ZNK9__gnu_cxx17__normal_iteratorIPiSt6vectorIiSaIiEEE4baseEv, symObjAddr: 0x98F8, symBinAddr: 0x10000D94C, symSize: 0x14 }
  - { offset: 0x20AE3, size: 0x8, addend: 0x0, symName: __ZNKSt6vectorIiSaIiEE8max_sizeEv, symObjAddr: 0x98D8, symBinAddr: 0x10000D92C, symSize: 0x20 }
  - { offset: 0x20B07, size: 0x8, addend: 0x0, symName: __ZNSt12_Destroy_auxILb1EE9__destroyIPZN7atcoder9mcf_graphIixE5slopeERNS2_8internal3csrINS4_5_edgeEEEiiiE1QEEvT_SC_, symObjAddr: 0x98C0, symBinAddr: 0x10000D914, symSize: 0x18 }
  - { offset: 0x20B3C, size: 0x8, addend: 0x0, symName: __ZNSt15__new_allocatorIZN7atcoder9mcf_graphIixE5slopeERNS0_8internal3csrINS2_5_edgeEEEiiiE1QE10deallocateEPS8_m, symObjAddr: 0x988C, symBinAddr: 0x10000D8E0, symSize: 0x34 }
  - { offset: 0x20B82, size: 0x8, addend: 0x0, symName: __ZNSt13_Bvector_baseISaIbEE18_Bvector_impl_data8_M_resetEv, symObjAddr: 0x984C, symBinAddr: 0x10000D8A0, symSize: 0x40 }
  - { offset: 0x20BAA, size: 0x8, addend: 0x0, symName: __ZNKSt13_Bvector_baseISaIbEE13_Bvector_impl11_M_end_addrEv, symObjAddr: 0x980C, symBinAddr: 0x10000D860, symSize: 0x40 }
  - { offset: 0x20BCE, size: 0x8, addend: 0x0, symName: __ZSt11__addressofImEPT_RS0_, symObjAddr: 0x97F8, symBinAddr: 0x10000D84C, symSize: 0x14 }
  - { offset: 0x20BFE, size: 0x8, addend: 0x0, symName: __ZNSt13_Bvector_baseISaIbEE8_S_nwordEm, symObjAddr: 0x97DC, symBinAddr: 0x10000D830, symSize: 0x1C }
  - { offset: 0x20C2A, size: 0x8, addend: 0x0, symName: __ZNSt13_Bvector_baseISaIbEE11_M_allocateEm, symObjAddr: 0x978C, symBinAddr: 0x10000D7E0, symSize: 0x50 }
  - { offset: 0x20CC5, size: 0x8, addend: 0x0, symName: __ZNSt13_Bvector_baseISaIbEE13_Bvector_implC1ERKSaImE, symObjAddr: 0x9740, symBinAddr: 0x10000D794, symSize: 0x4C }
  - { offset: 0x20D65, size: 0x8, addend: 0x0, symName: __ZNSt12_Destroy_auxILb1EE9__destroyIPSt4pairIxxEEEvT_S5_, symObjAddr: 0x9728, symBinAddr: 0x10000D77C, symSize: 0x18 }
  - { offset: 0x20D96, size: 0x8, addend: 0x0, symName: __ZSt25__uninitialized_default_nIPSt4pairIxxEmET_S3_T0_, symObjAddr: 0x96FC, symBinAddr: 0x10000D750, symSize: 0x2C }
  - { offset: 0x20E27, size: 0x8, addend: 0x0, symName: __ZNSt12_Vector_baseISt4pairIxxESaIS1_EE11_M_allocateEm, symObjAddr: 0x96AC, symBinAddr: 0x10000D700, symSize: 0x50 }
  - { offset: 0x20EA4, size: 0x8, addend: 0x0, symName: __ZNSt12_Vector_baseISt4pairIxxESaIS1_EE17_Vector_impl_dataC2Ev, symObjAddr: 0x9680, symBinAddr: 0x10000D6D4, symSize: 0x2C }
  - { offset: 0x20EF5, size: 0x8, addend: 0x0, symName: __ZNSt20__uninitialized_copyILb1EE13__uninit_copyIN9__gnu_cxx17__normal_iteratorIPKiSt6vectorIiSaIiEEEEPiEET0_T_SC_SB_, symObjAddr: 0x9654, symBinAddr: 0x10000D6A8, symSize: 0x2C }
  - { offset: 0x20F4C, size: 0x8, addend: 0x0, symName: __ZSt25__uninitialized_default_nIPN7atcoder9mcf_graphIixE5_edgeEmET_S5_T0_, symObjAddr: 0x9628, symBinAddr: 0x10000D67C, symSize: 0x2C }
  - { offset: 0x20FAB, size: 0x8, addend: 0x0, symName: __ZNSt12_Vector_baseIN7atcoder9mcf_graphIixE5_edgeESaIS3_EE11_M_allocateEm, symObjAddr: 0x95D8, symBinAddr: 0x10000D62C, symSize: 0x50 }
  - { offset: 0x21028, size: 0x8, addend: 0x0, symName: __ZNSt12_Vector_baseIN7atcoder9mcf_graphIixE5_edgeESaIS3_EE17_Vector_impl_dataC2Ev, symObjAddr: 0x95AC, symBinAddr: 0x10000D600, symSize: 0x2C }
  - { offset: 0x21062, size: 0x8, addend: 0x0, symName: __ZNK9__gnu_cxx17__normal_iteratorIPSt4pairIiN7atcoder9mcf_graphIixE5_edgeEESt6vectorIS6_SaIS6_EEE4baseEv, symObjAddr: 0x9598, symBinAddr: 0x10000D5EC, symSize: 0x14 }
  - { offset: 0x210B3, size: 0x8, addend: 0x0, symName: __ZN9__gnu_cxx17__normal_iteratorIPSt4pairIiN7atcoder9mcf_graphIixE5_edgeEESt6vectorIS6_SaIS6_EEEC1ERKS7_, symObjAddr: 0x9570, symBinAddr: 0x10000D5C4, symSize: 0x28 }
  - { offset: 0x210DB, size: 0x8, addend: 0x0, symName: __ZNSt20__uninitialized_copyILb0EE13__uninit_copyISt13move_iteratorIPSt4pairIiN7atcoder9mcf_graphIixE5_edgeEEES9_EET0_T_SC_SB_, symObjAddr: 0x9544, symBinAddr: 0x10000D598, symSize: 0x2C }
  - { offset: 0x21132, size: 0x8, addend: 0x0, symName: __ZSt14__relocate_a_1IPSt4pairIiN7atcoder9mcf_graphIixE5_edgeEES6_SaIS5_EET0_T_S9_S8_RT1_, symObjAddr: 0x94C0, symBinAddr: 0x10000D514, symSize: 0x84 }
  - { offset: 0x211B5, size: 0x8, addend: 0x0, symName: __ZSt12__niter_baseIPSt4pairIiN7atcoder9mcf_graphIixE5_edgeEEET_S7_, symObjAddr: 0x94AC, symBinAddr: 0x10000D500, symSize: 0x14 }
  - { offset: 0x211FC, size: 0x8, addend: 0x0, symName: __ZNSt27__uninitialized_default_n_1ILb1EE18__uninit_default_nIPimEET_S3_T0_, symObjAddr: 0x9448, symBinAddr: 0x10000D49C, symSize: 0x64 }
  - { offset: 0x212A9, size: 0x8, addend: 0x0, symName: __ZSt18uninitialized_copyISt13move_iteratorIPN7atcoder9mcf_graphIixE4edgeEES5_ET0_T_S8_S7_, symObjAddr: 0x940C, symBinAddr: 0x10000D460, symSize: 0x3C }
  - { offset: 0x2134B, size: 0x8, addend: 0x0, symName: __ZNSt13move_iteratorIPN7atcoder9mcf_graphIixE4edgeEEC1ES4_, symObjAddr: 0x93DC, symBinAddr: 0x10000D430, symSize: 0x30 }
  - { offset: 0x21373, size: 0x8, addend: 0x0, symName: __ZSt12__relocate_aIPN7atcoder9mcf_graphIixE4edgeES4_SaIS3_EET0_T_S7_S6_RT1_, symObjAddr: 0x9380, symBinAddr: 0x10000D3D4, symSize: 0x5C }
  - { offset: 0x213EA, size: 0x8, addend: 0x0, symName: __ZNSt15__new_allocatorIN7atcoder9mcf_graphIixE4edgeEE8allocateEmPKv, symObjAddr: 0x92F4, symBinAddr: 0x10000D348, symSize: 0x8C }
  - { offset: 0x2145D, size: 0x8, addend: 0x0, symName: __ZNSt6vectorIN7atcoder9mcf_graphIixE4edgeESaIS3_EE11_S_max_sizeERKS4_, symObjAddr: 0x9298, symBinAddr: 0x10000D2EC, symSize: 0x5C }
  - { offset: 0x2150B, size: 0x8, addend: 0x0, symName: __ZSt10_ConstructISt6vectorIxSaIxEEJRKS2_EEvPT_DpOT0_, symObjAddr: 0x921C, symBinAddr: 0x10000D270, symSize: 0x7C }
  - { offset: 0x21553, size: 0x8, addend: 0x0, symName: __ZSt10__fill_n_aIPxmxET_S1_T0_RKT1_St26random_access_iterator_tag, symObjAddr: 0x91B8, symBinAddr: 0x10000D20C, symSize: 0x64 }
  - { offset: 0x215D4, size: 0x8, addend: 0x0, symName: __ZSt4copyIN9__gnu_cxx17__normal_iteratorIPKN7atcoder9mcf_graphIixE4edgeESt6vectorIS5_SaIS5_EEEEPS5_ET0_T_SE_SD_, symObjAddr: 0x9170, symBinAddr: 0x10000D1C4, symSize: 0x48 }
  - { offset: 0x2162E, size: 0x8, addend: 0x0, symName: __ZSt18__do_uninit_fill_nIPNSt7__cxx1112basic_stringIcSt11char_traitsIcESaIcEEEmS5_ET_S7_T0_RKT1_, symObjAddr: 0x90E0, symBinAddr: 0x10000D134, symSize: 0x90 }
  - { offset: 0x216A5, size: 0x8, addend: 0x0, symName: __ZNSt15__new_allocatorINSt7__cxx1112basic_stringIcSt11char_traitsIcESaIcEEEE8allocateEmPKv, symObjAddr: 0x9068, symBinAddr: 0x10000D0BC, symSize: 0x78 }
  - { offset: 0x2171C, size: 0x8, addend: 0x0, symName: __ZNSt15__new_allocatorISt4pairIixEE10deallocateEPS1_m, symObjAddr: 0x9034, symBinAddr: 0x10000D088, symSize: 0x34 }
  - { offset: 0x21762, size: 0x8, addend: 0x0, symName: __ZNSt6vectorISt4pairIixESaIS1_EE17_M_realloc_appendIJS1_EEEvDpOT_, symObjAddr: 0x8DE8, symBinAddr: 0x10000CE3C, symSize: 0x24C }
  - { offset: 0x218DE, size: 0x8, addend: 0x0, symName: __ZZNSt6vectorISt4pairIixESaIS1_EE17_M_realloc_appendIJS1_EEEvDpOT_EN6_GuardC1EPS1_mRS2_, symObjAddr: 0x8C8C, symBinAddr: 0x10000CCE0, symSize: 0x44 }
  - { offset: 0x2191F, size: 0x8, addend: 0x0, symName: __ZZNSt6vectorISt4pairIixESaIS1_EE17_M_realloc_appendIJS1_EEEvDpOT_EN6_GuardD1Ev, symObjAddr: 0x8CD0, symBinAddr: 0x10000CD24, symSize: 0x60 }
  - { offset: 0x21AD9, size: 0x8, addend: 0x0, symName: __ZZNSt6vectorISt4pairIixESaIS1_EE17_M_realloc_appendIJS1_EEEvDpOT_EN11_Guard_eltsC1EPS1_RS2_, symObjAddr: 0x8D58, symBinAddr: 0x10000CDAC, symSize: 0x44 }
  - { offset: 0x21B12, size: 0x8, addend: 0x0, symName: __ZZNSt6vectorISt4pairIixESaIS1_EE17_M_realloc_appendIJS1_EEEvDpOT_EN11_Guard_eltsD1Ev, symObjAddr: 0x8D9C, symBinAddr: 0x10000CDF0, symSize: 0x4C }
  - { offset: 0x21B66, size: 0x8, addend: 0x0, symName: __ZNSt6vectorISt4pairIixESaIS1_EE19_S_nothrow_relocateESt17integral_constantIbLb1EE, symObjAddr: 0x8D44, symBinAddr: 0x10000CD98, symSize: 0x14 }
  - { offset: 0x21B87, size: 0x8, addend: 0x0, symName: __ZNSt6vectorISt4pairIixESaIS1_EE15_S_use_relocateEv, symObjAddr: 0x8D30, symBinAddr: 0x10000CD84, symSize: 0x14 }
  - { offset: 0x21BE8, size: 0x8, addend: 0x0, symName: __ZSt7forwardISt4pairIixEEOT_RNSt16remove_referenceIS2_E4typeE, symObjAddr: 0x8C78, symBinAddr: 0x10000CCCC, symSize: 0x14 }
  - { offset: 0x21C44, size: 0x8, addend: 0x0, symName: __ZSt22__uninitialized_copy_aIPKSt4pairIixEPS1_S1_ET0_T_S6_S5_RSaIT1_E, symObjAddr: 0x8C48, symBinAddr: 0x10000CC9C, symSize: 0x30 }
  - { offset: 0x21CB3, size: 0x8, addend: 0x0, symName: __ZNSt12_Vector_baseISt4pairIixESaIS1_EE11_M_allocateEm, symObjAddr: 0x8BF8, symBinAddr: 0x10000CC4C, symSize: 0x50 }
  - { offset: 0x21D11, size: 0x8, addend: 0x0, symName: __ZNSt6vectorISt4pairIixESaIS1_EE17_S_check_init_lenEmRKS2_, symObjAddr: 0x8B74, symBinAddr: 0x10000CBC8, symSize: 0x84 }
  - { offset: 0x21DEA, size: 0x8, addend: 0x0, symName: __ZNKSt16initializer_listISt4pairIixEE4sizeEv, symObjAddr: 0x8B5C, symBinAddr: 0x10000CBB0, symSize: 0x18 }
  - { offset: 0x21E3A, size: 0x8, addend: 0x0, symName: __ZNSt12_Vector_baseISt4pairIixESaIS1_EE12_Vector_implC1ERKS2_, symObjAddr: 0x8B10, symBinAddr: 0x10000CB64, symSize: 0x4C }
  - { offset: 0x21EBA, size: 0x8, addend: 0x0, symName: __ZNSt6vectorIZN7atcoder9mcf_graphIixE5slopeERNS0_8internal3csrINS2_5_edgeEEEiiiE1QSaIS8_EE17_M_realloc_appendIJS8_EEEvDpOT_, symObjAddr: 0x88C4, symBinAddr: 0x10000C918, symSize: 0x24C }
  - { offset: 0x22036, size: 0x8, addend: 0x0, symName: __ZZNSt6vectorIZN7atcoder9mcf_graphIixE5slopeERNS0_8internal3csrINS2_5_edgeEEEiiiE1QSaIS8_EE17_M_realloc_appendIJS8_EEEvDpOT_EN6_GuardC1EPS8_mRS9_, symObjAddr: 0x8768, symBinAddr: 0x10000C7BC, symSize: 0x44 }
  - { offset: 0x22077, size: 0x8, addend: 0x0, symName: __ZZNSt6vectorIZN7atcoder9mcf_graphIixE5slopeERNS0_8internal3csrINS2_5_edgeEEEiiiE1QSaIS8_EE17_M_realloc_appendIJS8_EEEvDpOT_EN6_GuardD1Ev, symObjAddr: 0x87AC, symBinAddr: 0x10000C800, symSize: 0x60 }
  - { offset: 0x22231, size: 0x8, addend: 0x0, symName: __ZZNSt6vectorIZN7atcoder9mcf_graphIixE5slopeERNS0_8internal3csrINS2_5_edgeEEEiiiE1QSaIS8_EE17_M_realloc_appendIJS8_EEEvDpOT_EN11_Guard_eltsC1EPS8_RS9_, symObjAddr: 0x8834, symBinAddr: 0x10000C888, symSize: 0x44 }
  - { offset: 0x2226A, size: 0x8, addend: 0x0, symName: __ZZNSt6vectorIZN7atcoder9mcf_graphIixE5slopeERNS0_8internal3csrINS2_5_edgeEEEiiiE1QSaIS8_EE17_M_realloc_appendIJS8_EEEvDpOT_EN11_Guard_eltsD1Ev, symObjAddr: 0x8878, symBinAddr: 0x10000C8CC, symSize: 0x4C }
  - { offset: 0x222BE, size: 0x8, addend: 0x0, symName: __ZNSt6vectorIZN7atcoder9mcf_graphIixE5slopeERNS0_8internal3csrINS2_5_edgeEEEiiiE1QSaIS8_EE19_S_nothrow_relocateESt17integral_constantIbLb1EE, symObjAddr: 0x8820, symBinAddr: 0x10000C874, symSize: 0x14 }
  - { offset: 0x222DF, size: 0x8, addend: 0x0, symName: __ZNSt6vectorIZN7atcoder9mcf_graphIixE5slopeERNS0_8internal3csrINS2_5_edgeEEEiiiE1QSaIS8_EE15_S_use_relocateEv, symObjAddr: 0x880C, symBinAddr: 0x10000C860, symSize: 0x14 }
  - { offset: 0x22340, size: 0x8, addend: 0x0, symName: __ZSt7forwardIZN7atcoder9mcf_graphIixE5slopeERNS0_8internal3csrINS2_5_edgeEEEiiiE1QEOT_RNSt16remove_referenceIS9_E4typeE, symObjAddr: 0x8754, symBinAddr: 0x10000C7A8, symSize: 0x14 }
  - { offset: 0x2239C, size: 0x8, addend: 0x0, symName: __ZSt13__adjust_heapIN9__gnu_cxx17__normal_iteratorIPZN7atcoder9mcf_graphIixE5slopeERNS2_8internal3csrINS4_5_edgeEEEiiiE1QSt6vectorISA_SaISA_EEEElSA_NS0_5__ops15_Iter_less_iterEEvT_T0_SJ_T1_T2_, symObjAddr: 0x8574, symBinAddr: 0x10000C5C8, symSize: 0x1E0 }
  - { offset: 0x22464, size: 0x8, addend: 0x0, symName: __ZNK9__gnu_cxx5__ops14_Iter_less_valclINS_17__normal_iteratorIPZN7atcoder9mcf_graphIixE5slopeERNS4_8internal3csrINS6_5_edgeEEEiiiE1QSt6vectorISC_SaISC_EEEESC_EEbT_RT0_, symObjAddr: 0x853C, symBinAddr: 0x10000C590, symSize: 0x38 }
  - { offset: 0x224BC, size: 0x8, addend: 0x0, symName: __ZNK9__gnu_cxx17__normal_iteratorIPZN7atcoder9mcf_graphIixE5slopeERNS1_8internal3csrINS3_5_edgeEEEiiiE1QSt6vectorIS9_SaIS9_EEE4baseEv, symObjAddr: 0x8528, symBinAddr: 0x10000C57C, symSize: 0x14 }
  - { offset: 0x22539, size: 0x8, addend: 0x0, symName: __ZN9__gnu_cxx17__normal_iteratorIPiSt6vectorIiSaIiEEEC1ERKS1_, symObjAddr: 0x8500, symBinAddr: 0x10000C554, symSize: 0x28 }
  - { offset: 0x22565, size: 0x8, addend: 0x0, symName: __ZNK9__gnu_cxx17__normal_iteratorIPKZN7atcoder9mcf_graphIixE5slopeERNS1_8internal3csrINS3_5_edgeEEEiiiE1QSt6vectorIS9_SaIS9_EEE4baseEv, symObjAddr: 0x84EC, symBinAddr: 0x10000C540, symSize: 0x14 }
  - { offset: 0x225B6, size: 0x8, addend: 0x0, symName: __ZN9__gnu_cxx17__normal_iteratorIPKZN7atcoder9mcf_graphIixE5slopeERNS1_8internal3csrINS3_5_edgeEEEiiiE1QSt6vectorIS9_SaIS9_EEEC1ERKSB_, symObjAddr: 0x84C4, symBinAddr: 0x10000C518, symSize: 0x28 }
  - { offset: 0x225E2, size: 0x8, addend: 0x0, symName: __ZNK9__gnu_cxx17__normal_iteratorIPKiSt6vectorIiSaIiEEE4baseEv, symObjAddr: 0x84B0, symBinAddr: 0x10000C504, symSize: 0x14 }
  - { offset: 0x22606, size: 0x8, addend: 0x0, symName: __ZSt34__uninitialized_move_if_noexcept_aIPiS0_SaIiEET0_T_S3_S2_RT1_, symObjAddr: 0x8460, symBinAddr: 0x10000C4B4, symSize: 0x50 }
  - { offset: 0x22679, size: 0x8, addend: 0x0, symName: __ZNSt6vectorIiSaIiEE11_S_relocateEPiS2_S2_RS0_, symObjAddr: 0x842C, symBinAddr: 0x10000C480, symSize: 0x34 }
  - { offset: 0x226D1, size: 0x8, addend: 0x0, symName: __ZSt12__to_addressIiEPT_S1_, symObjAddr: 0x8418, symBinAddr: 0x10000C46C, symSize: 0x14 }
  - { offset: 0x22707, size: 0x8, addend: 0x0, symName: __ZN9__gnu_cxxmiIPiSt6vectorIiSaIiEEEENS_17__normal_iteratorIT_T0_E15difference_typeERKS8_SB_, symObjAddr: 0x83D8, symBinAddr: 0x10000C42C, symSize: 0x40 }
  - { offset: 0x22755, size: 0x8, addend: 0x0, symName: __ZNSt6vectorIiSaIiEE5beginEv, symObjAddr: 0x83B4, symBinAddr: 0x10000C408, symSize: 0x24 }
  - { offset: 0x2277D, size: 0x8, addend: 0x0, symName: __ZNKSt6vectorIiSaIiEE12_M_check_lenEmPKc, symObjAddr: 0x82E4, symBinAddr: 0x10000C338, symSize: 0xD0 }
  - { offset: 0x22818, size: 0x8, addend: 0x0, symName: __ZSt7forwardIRKiEOT_RNSt16remove_referenceIS2_E4typeE, symObjAddr: 0x82D0, symBinAddr: 0x10000C324, symSize: 0x14 }
  - { offset: 0x22848, size: 0x8, addend: 0x0, symName: __ZSt8_DestroyIPZN7atcoder9mcf_graphIixE5slopeERNS0_8internal3csrINS2_5_edgeEEEiiiE1QEvT_SA_, symObjAddr: 0x82A8, symBinAddr: 0x10000C2FC, symSize: 0x28 }
  - { offset: 0x228D3, size: 0x8, addend: 0x0, symName: __ZNSt13_Bvector_baseISaIbEE13_M_deallocateEv, symObjAddr: 0x8218, symBinAddr: 0x10000C26C, symSize: 0x90 }
  - { offset: 0x22950, size: 0x8, addend: 0x0, symName: __ZNSt6vectorIbSaIbEE19_M_initialize_valueEb, symObjAddr: 0x81B4, symBinAddr: 0x10000C208, symSize: 0x64 }
  - { offset: 0x229AB, size: 0x8, addend: 0x0, symName: __ZNSt6vectorIbSaIbEE13_M_initializeEm, symObjAddr: 0x80FC, symBinAddr: 0x10000C150, symSize: 0xB8 }
  - { offset: 0x22A3F, size: 0x8, addend: 0x0, symName: __ZNSt13_Bvector_baseISaIbEEC2ERKS0_, symObjAddr: 0x80B0, symBinAddr: 0x10000C104, symSize: 0x4C }
  - { offset: 0x22AD1, size: 0x8, addend: 0x0, symName: __ZSt8_DestroyIPSt4pairIxxEEvT_S3_, symObjAddr: 0x8088, symBinAddr: 0x10000C0DC, symSize: 0x28 }
  - { offset: 0x22B10, size: 0x8, addend: 0x0, symName: __ZSt27__uninitialized_default_n_aIPSt4pairIxxEmS1_ET_S3_T0_RSaIT1_E, symObjAddr: 0x8060, symBinAddr: 0x10000C0B4, symSize: 0x28 }
  - { offset: 0x22B6F, size: 0x8, addend: 0x0, symName: __ZNSt12_Vector_baseISt4pairIxxESaIS1_EE13_M_deallocateEPS1_m, symObjAddr: 0x8008, symBinAddr: 0x10000C05C, symSize: 0x58 }
  - { offset: 0x22BE9, size: 0x8, addend: 0x0, symName: __ZNSt12_Vector_baseISt4pairIxxESaIS1_EE17_M_create_storageEm, symObjAddr: 0x7FA8, symBinAddr: 0x10000BFFC, symSize: 0x60 }
  - { offset: 0x22C49, size: 0x8, addend: 0x0, symName: __ZNSt12_Vector_baseISt4pairIxxESaIS1_EE12_Vector_implC1ERKS2_, symObjAddr: 0x7F5C, symBinAddr: 0x10000BFB0, symSize: 0x4C }
  - { offset: 0x22CE8, size: 0x8, addend: 0x0, symName: __ZNSt6vectorISt4pairIxxESaIS1_EE11_S_max_sizeERKS2_, symObjAddr: 0x7F08, symBinAddr: 0x10000BF5C, symSize: 0x54 }
  - { offset: 0x22D9A, size: 0x8, addend: 0x0, symName: __ZNSt15__new_allocatorIN7atcoder9mcf_graphIixE5_edgeEE10deallocateEPS3_m, symObjAddr: 0x7EC8, symBinAddr: 0x10000BF1C, symSize: 0x40 }
  - { offset: 0x22DE0, size: 0x8, addend: 0x0, symName: __ZNSt15__new_allocatorIiE10deallocateEPim, symObjAddr: 0x7E94, symBinAddr: 0x10000BEE8, symSize: 0x34 }
  - { offset: 0x22E22, size: 0x8, addend: 0x0, symName: __ZNSt12_Destroy_auxILb1EE9__destroyIPN7atcoder9mcf_graphIixE5_edgeEEEvT_S7_, symObjAddr: 0x7E7C, symBinAddr: 0x10000BED0, symSize: 0x18 }
  - { offset: 0x22E53, size: 0x8, addend: 0x0, symName: __ZSt18uninitialized_copyIN9__gnu_cxx17__normal_iteratorIPKiSt6vectorIiSaIiEEEEPiET0_T_SA_S9_, symObjAddr: 0x7E40, symBinAddr: 0x10000BE94, symSize: 0x3C }
  - { offset: 0x22EF5, size: 0x8, addend: 0x0, symName: __ZN9__gnu_cxx17__normal_iteratorIPKiSt6vectorIiSaIiEEEC1ERKS2_, symObjAddr: 0x7E18, symBinAddr: 0x10000BE6C, symSize: 0x28 }
  - { offset: 0x22F33, size: 0x8, addend: 0x0, symName: __ZSt27__uninitialized_default_n_aIPN7atcoder9mcf_graphIixE5_edgeEmS3_ET_S5_T0_RSaIT1_E, symObjAddr: 0x7DF0, symBinAddr: 0x10000BE44, symSize: 0x28 }
  - { offset: 0x22F92, size: 0x8, addend: 0x0, symName: __ZNSt12_Vector_baseIN7atcoder9mcf_graphIixE5_edgeESaIS3_EE17_M_create_storageEm, symObjAddr: 0x7D84, symBinAddr: 0x10000BDD8, symSize: 0x6C }
  - { offset: 0x22FF2, size: 0x8, addend: 0x0, symName: __ZNSt12_Vector_baseIN7atcoder9mcf_graphIixE5_edgeESaIS3_EE12_Vector_implC1ERKS4_, symObjAddr: 0x7D38, symBinAddr: 0x10000BD8C, symSize: 0x4C }
  - { offset: 0x2306E, size: 0x8, addend: 0x0, symName: __ZNSt6vectorIN7atcoder9mcf_graphIixE5_edgeESaIS3_EE11_S_max_sizeERKS4_, symObjAddr: 0x7CDC, symBinAddr: 0x10000BD30, symSize: 0x5C }
  - { offset: 0x2311C, size: 0x8, addend: 0x0, symName: __ZSt34__uninitialized_move_if_noexcept_aIPSt4pairIiN7atcoder9mcf_graphIixE5_edgeEES6_SaIS5_EET0_T_S9_S8_RT1_, symObjAddr: 0x7C8C, symBinAddr: 0x10000BCE0, symSize: 0x50 }
  - { offset: 0x2318F, size: 0x8, addend: 0x0, symName: __ZSt12__to_addressISt4pairIiN7atcoder9mcf_graphIixE5_edgeEEEPT_S7_, symObjAddr: 0x7C78, symBinAddr: 0x10000BCCC, symSize: 0x14 }
  - { offset: 0x231C5, size: 0x8, addend: 0x0, symName: __ZN9__gnu_cxxmiIPSt4pairIiN7atcoder9mcf_graphIixE5_edgeEESt6vectorIS6_SaIS6_EEEENS_17__normal_iteratorIT_T0_E15difference_typeERKSE_SH_, symObjAddr: 0x7C38, symBinAddr: 0x10000BC8C, symSize: 0x40 }
  - { offset: 0x23213, size: 0x8, addend: 0x0, symName: __ZNSt6vectorISt4pairIiN7atcoder9mcf_graphIixE5_edgeEESaIS5_EE5beginEv, symObjAddr: 0x7C14, symBinAddr: 0x10000BC68, symSize: 0x24 }
  - { offset: 0x2323B, size: 0x8, addend: 0x0, symName: __ZNSt6vectorISt4pairIiN7atcoder9mcf_graphIixE5_edgeEESaIS5_EE3endEv, symObjAddr: 0x7BEC, symBinAddr: 0x10000BC40, symSize: 0x28 }
  - { offset: 0x23263, size: 0x8, addend: 0x0, symName: __ZNKSt6vectorISt4pairIiN7atcoder9mcf_graphIixE5_edgeEESaIS5_EE12_M_check_lenEmPKc, symObjAddr: 0x7B1C, symBinAddr: 0x10000BB70, symSize: 0xD0 }
  - { offset: 0x232F8, size: 0x8, addend: 0x0, symName: __ZSt18uninitialized_copyISt13move_iteratorIPSt4pairIiN7atcoder9mcf_graphIixE5_edgeEEES7_ET0_T_SA_S9_, symObjAddr: 0x7AE8, symBinAddr: 0x10000BB3C, symSize: 0x34 }
  - { offset: 0x23379, size: 0x8, addend: 0x0, symName: __ZSt4moveIRPSt4pairIiN7atcoder9mcf_graphIixE5_edgeEEEONSt16remove_referenceIT_E4typeEOS9_, symObjAddr: 0x7AD4, symBinAddr: 0x10000BB28, symSize: 0x14 }
  - { offset: 0x233A9, size: 0x8, addend: 0x0, symName: __ZSt12__relocate_aIPSt4pairIiN7atcoder9mcf_graphIixE5_edgeEES6_SaIS5_EET0_T_S9_S8_RT1_, symObjAddr: 0x7A78, symBinAddr: 0x10000BACC, symSize: 0x5C }
  - { offset: 0x23420, size: 0x8, addend: 0x0, symName: __ZNSt15__new_allocatorISt4pairIiN7atcoder9mcf_graphIixE5_edgeEEE8allocateEmPKv, symObjAddr: 0x7A00, symBinAddr: 0x10000BA54, symSize: 0x78 }
  - { offset: 0x234A9, size: 0x8, addend: 0x0, symName: __ZNSt12_Destroy_auxILb1EE9__destroyIPSt4pairIiN7atcoder9mcf_graphIixE5_edgeEEEEvT_S9_, symObjAddr: 0x79E8, symBinAddr: 0x10000BA3C, symSize: 0x18 }
  - { offset: 0x234DE, size: 0x8, addend: 0x0, symName: __ZNSt15__new_allocatorISt4pairIiN7atcoder9mcf_graphIixE5_edgeEEE10deallocateEPS5_m, symObjAddr: 0x79B4, symBinAddr: 0x10000BA08, symSize: 0x34 }
  - { offset: 0x23520, size: 0x8, addend: 0x0, symName: __ZNSt12_Destroy_auxILb1EE9__destroyIPiEEvT_S3_, symObjAddr: 0x799C, symBinAddr: 0x10000B9F0, symSize: 0x18 }
  - { offset: 0x23551, size: 0x8, addend: 0x0, symName: __ZSt25__uninitialized_default_nIPimET_S1_T0_, symObjAddr: 0x7970, symBinAddr: 0x10000B9C4, symSize: 0x2C }
  - { offset: 0x235B0, size: 0x8, addend: 0x0, symName: __ZNSt12_Vector_baseIiSaIiEE11_M_allocateEm, symObjAddr: 0x7920, symBinAddr: 0x10000B974, symSize: 0x50 }
  - { offset: 0x23624, size: 0x8, addend: 0x0, symName: __ZSt22__uninitialized_copy_aISt13move_iteratorIPN7atcoder9mcf_graphIixE4edgeEES5_S4_ET0_T_S8_S7_RSaIT1_E, symObjAddr: 0x78F0, symBinAddr: 0x10000B944, symSize: 0x30 }
  - { offset: 0x2368F, size: 0x8, addend: 0x0, symName: __ZSt32__make_move_if_noexcept_iteratorIN7atcoder9mcf_graphIixE4edgeESt13move_iteratorIPS3_EET0_PT_, symObjAddr: 0x78CC, symBinAddr: 0x10000B920, symSize: 0x24 }
  - { offset: 0x236C9, size: 0x8, addend: 0x0, symName: __ZNSt6vectorIN7atcoder9mcf_graphIixE4edgeESaIS3_EE14_S_do_relocateEPS3_S6_S6_RS4_St17integral_constantIbLb1EE, symObjAddr: 0x7894, symBinAddr: 0x10000B8E8, symSize: 0x38 }
  - { offset: 0x23751, size: 0x8, addend: 0x0, symName: __ZNK9__gnu_cxx17__normal_iteratorIPN7atcoder9mcf_graphIixE4edgeESt6vectorIS4_SaIS4_EEE4baseEv, symObjAddr: 0x7880, symBinAddr: 0x10000B8D4, symSize: 0x14 }
  - { offset: 0x237A2, size: 0x8, addend: 0x0, symName: __ZN9__gnu_cxx17__normal_iteratorIPN7atcoder9mcf_graphIixE4edgeESt6vectorIS4_SaIS4_EEEC1ERKS5_, symObjAddr: 0x7858, symBinAddr: 0x10000B8AC, symSize: 0x28 }
  - { offset: 0x237CE, size: 0x8, addend: 0x0, symName: __ZNKSt6vectorIN7atcoder9mcf_graphIixE4edgeESaIS3_EE8max_sizeEv, symObjAddr: 0x7838, symBinAddr: 0x10000B88C, symSize: 0x20 }
  - { offset: 0x237F2, size: 0x8, addend: 0x0, symName: __ZSt18__do_uninit_fill_nIPSt6vectorIxSaIxEEmS2_ET_S4_T0_RKT1_, symObjAddr: 0x77A8, symBinAddr: 0x10000B7FC, symSize: 0x90 }
  - { offset: 0x23869, size: 0x8, addend: 0x0, symName: __ZNSt15__new_allocatorISt6vectorIxSaIxEEE8allocateEmPKv, symObjAddr: 0x771C, symBinAddr: 0x10000B770, symSize: 0x8C }
  - { offset: 0x238DC, size: 0x8, addend: 0x0, symName: __ZSt6fill_nIPxmxET_S1_T0_RKT1_, symObjAddr: 0x76D4, symBinAddr: 0x10000B728, symSize: 0x48 }
  - { offset: 0x2395F, size: 0x8, addend: 0x0, symName: __ZSt10_ConstructIxJEEvPT_DpOT0_, symObjAddr: 0x76A8, symBinAddr: 0x10000B6FC, symSize: 0x2C }
  - { offset: 0x23999, size: 0x8, addend: 0x0, symName: __ZSt11__addressofIxEPT_RS0_, symObjAddr: 0x7694, symBinAddr: 0x10000B6E8, symSize: 0x14 }
  - { offset: 0x239CD, size: 0x8, addend: 0x0, symName: __ZNSt15__new_allocatorIxE8allocateEmPKv, symObjAddr: 0x761C, symBinAddr: 0x10000B670, symSize: 0x78 }
  - { offset: 0x23A40, size: 0x8, addend: 0x0, symName: __ZNSt20__uninitialized_copyILb1EE13__uninit_copyIN9__gnu_cxx17__normal_iteratorIPKN7atcoder9mcf_graphIixE4edgeESt6vectorIS7_SaIS7_EEEEPS7_EET0_T_SG_SF_, symObjAddr: 0x75F0, symBinAddr: 0x10000B644, symSize: 0x2C }
  - { offset: 0x23AB2, size: 0x8, addend: 0x0, symName: __ZSt8_DestroyINSt7__cxx1112basic_stringIcSt11char_traitsIcESaIcEEEEvPT_, symObjAddr: 0x75D0, symBinAddr: 0x10000B624, symSize: 0x20 }
  - { offset: 0x23AE2, size: 0x8, addend: 0x0, symName: __ZSt11__addressofINSt7__cxx1112basic_stringIcSt11char_traitsIcESaIcEEEEPT_RS6_, symObjAddr: 0x75BC, symBinAddr: 0x10000B610, symSize: 0x14 }
  - { offset: 0x23B12, size: 0x8, addend: 0x0, symName: __ZNSt22__uninitialized_fill_nILb0EE15__uninit_fill_nIPNSt7__cxx1112basic_stringIcSt11char_traitsIcESaIcEEEmS7_EET_S9_T0_RKT1_, symObjAddr: 0x7590, symBinAddr: 0x10000B5E4, symSize: 0x2C }
  - { offset: 0x23B79, size: 0x8, addend: 0x0, symName: __ZNSt15__new_allocatorINSt7__cxx1112basic_stringIcSt11char_traitsIcESaIcEEEE10deallocateEPS5_m, symObjAddr: 0x755C, symBinAddr: 0x10000B5B0, symSize: 0x34 }
  - { offset: 0x23BF5, size: 0x8, addend: 0x0, symName: __ZNSt12_Destroy_auxILb1EE9__destroyIPSt4pairIixEEEvT_S5_, symObjAddr: 0x7544, symBinAddr: 0x10000B598, symSize: 0x18 }
  - { offset: 0x23C77, size: 0x8, addend: 0x0, symName: __ZNSt6vectorISt4pairIixESaIS1_EE12emplace_backIJS1_EEEvDpOT_, symObjAddr: 0x7470, symBinAddr: 0x10000B4C4, symSize: 0xD4 }
  - { offset: 0x23D1D, size: 0x8, addend: 0x0, symName: __ZSt7forwardIRxEOT_RNSt16remove_referenceIS1_E4typeE, symObjAddr: 0x745C, symBinAddr: 0x10000B4B0, symSize: 0x14 }
  - { offset: 0x23D53, size: 0x8, addend: 0x0, symName: __ZSt7forwardIRiEOT_RNSt16remove_referenceIS1_E4typeE, symObjAddr: 0x7448, symBinAddr: 0x10000B49C, symSize: 0x14 }
  - { offset: 0x23DB4, size: 0x8, addend: 0x0, symName: __ZNSt6vectorISt4pairIixESaIS1_EE19_M_range_initializeIPKS1_EEvT_S7_St20forward_iterator_tag, symObjAddr: 0x7364, symBinAddr: 0x10000B3B8, symSize: 0xE4 }
  - { offset: 0x23E9B, size: 0x8, addend: 0x0, symName: __ZNKSt16initializer_listISt4pairIixEE3endEv, symObjAddr: 0x732C, symBinAddr: 0x10000B380, symSize: 0x38 }
  - { offset: 0x23EC3, size: 0x8, addend: 0x0, symName: __ZNKSt16initializer_listISt4pairIixEE5beginEv, symObjAddr: 0x7314, symBinAddr: 0x10000B368, symSize: 0x18 }
  - { offset: 0x23F14, size: 0x8, addend: 0x0, symName: __ZNSt12_Vector_baseISt4pairIixESaIS1_EEC2ERKS2_, symObjAddr: 0x72EC, symBinAddr: 0x10000B340, symSize: 0x28 }
  - { offset: 0x23F56, size: 0x8, addend: 0x0, symName: __ZNSt6vectorIZN7atcoder9mcf_graphIixE5slopeERNS0_8internal3csrINS2_5_edgeEEEiiiE1QSaIS8_EE12emplace_backIJS8_EEEvDpOT_, symObjAddr: 0x7218, symBinAddr: 0x10000B26C, symSize: 0xD4 }
  - { offset: 0x24023, size: 0x8, addend: 0x0, symName: __ZSt10__pop_heapIN9__gnu_cxx17__normal_iteratorIPZN7atcoder9mcf_graphIixE5slopeERNS2_8internal3csrINS4_5_edgeEEEiiiE1QSt6vectorISA_SaISA_EEEENS0_5__ops15_Iter_less_iterEEvT_SI_SI_RT0_, symObjAddr: 0x7184, symBinAddr: 0x10000B1D8, symSize: 0x94 }
  - { offset: 0x240B7, size: 0x8, addend: 0x0, symName: __ZN9__gnu_cxx17__normal_iteratorIPZN7atcoder9mcf_graphIixE5slopeERNS1_8internal3csrINS3_5_edgeEEEiiiE1QSt6vectorIS9_SaIS9_EEEmmEv, symObjAddr: 0x715C, symBinAddr: 0x10000B1B0, symSize: 0x28 }
  - { offset: 0x240E1, size: 0x8, addend: 0x0, symName: __ZSt11__push_heapIN9__gnu_cxx17__normal_iteratorIPZN7atcoder9mcf_graphIixE5slopeERNS2_8internal3csrINS4_5_edgeEEEiiiE1QSt6vectorISA_SaISA_EEEElSA_NS0_5__ops14_Iter_less_valEEvT_T0_SJ_T1_RT2_, symObjAddr: 0x7028, symBinAddr: 0x10000B07C, symSize: 0x134 }
  - { offset: 0x2417F, size: 0x8, addend: 0x0, symName: __ZN9__gnu_cxxmiIPZN7atcoder9mcf_graphIixE5slopeERNS1_8internal3csrINS3_5_edgeEEEiiiE1QSt6vectorIS9_SaIS9_EEEENS_17__normal_iteratorIT_T0_E15difference_typeERKSH_SK_, symObjAddr: 0x6FE8, symBinAddr: 0x10000B03C, symSize: 0x40 }
  - { offset: 0x241CF, size: 0x8, addend: 0x0, symName: __ZSt4moveIRZN7atcoder9mcf_graphIixE5slopeERNS0_8internal3csrINS2_5_edgeEEEiiiE1QEONSt16remove_referenceIT_E4typeEOSB_, symObjAddr: 0x6FD4, symBinAddr: 0x10000B028, symSize: 0x14 }
  - { offset: 0x24203, size: 0x8, addend: 0x0, symName: __ZNK9__gnu_cxx17__normal_iteratorIPZN7atcoder9mcf_graphIixE5slopeERNS1_8internal3csrINS3_5_edgeEEEiiiE1QSt6vectorIS9_SaIS9_EEEdeEv, symObjAddr: 0x6FBC, symBinAddr: 0x10000B010, symSize: 0x18 }
  - { offset: 0x2422B, size: 0x8, addend: 0x0, symName: __ZNK9__gnu_cxx17__normal_iteratorIPZN7atcoder9mcf_graphIixE5slopeERNS1_8internal3csrINS3_5_edgeEEEiiiE1QSt6vectorIS9_SaIS9_EEEmiEl, symObjAddr: 0x6F78, symBinAddr: 0x10000AFCC, symSize: 0x44 }
  - { offset: 0x2428C, size: 0x8, addend: 0x0, symName: __ZN9__gnu_cxx17__normal_iteratorIPZN7atcoder9mcf_graphIixE5slopeERNS1_8internal3csrINS3_5_edgeEEEiiiE1QSt6vectorIS9_SaIS9_EEEC1ERKSA_, symObjAddr: 0x6F50, symBinAddr: 0x10000AFA4, symSize: 0x28 }
  - { offset: 0x242E5, size: 0x8, addend: 0x0, symName: __ZNK9__gnu_cxx17__normal_iteratorIPiSt6vectorIiSaIiEEEdeEv, symObjAddr: 0x6F38, symBinAddr: 0x10000AF8C, symSize: 0x18 }
  - { offset: 0x2430D, size: 0x8, addend: 0x0, symName: __ZNK9__gnu_cxx17__normal_iteratorIPiSt6vectorIiSaIiEEEmiEl, symObjAddr: 0x6EF4, symBinAddr: 0x10000AF48, symSize: 0x44 }
  - { offset: 0x24345, size: 0x8, addend: 0x0, symName: __ZNSt6vectorIiSaIiEE3endEv, symObjAddr: 0x6ECC, symBinAddr: 0x10000AF20, symSize: 0x28 }
  - { offset: 0x2436F, size: 0x8, addend: 0x0, symName: __ZN9__gnu_cxxeqIPKZN7atcoder9mcf_graphIixE5slopeERNS1_8internal3csrINS3_5_edgeEEEiiiE1QSt6vectorIS9_SaIS9_EEEEbRKNS_17__normal_iteratorIT_T0_EESK_, symObjAddr: 0x6E88, symBinAddr: 0x10000AEDC, symSize: 0x44 }
  - { offset: 0x243BD, size: 0x8, addend: 0x0, symName: __ZNKSt6vectorIZN7atcoder9mcf_graphIixE5slopeERNS0_8internal3csrINS2_5_edgeEEEiiiE1QSaIS8_EE3endEv, symObjAddr: 0x6E60, symBinAddr: 0x10000AEB4, symSize: 0x28 }
  - { offset: 0x243E5, size: 0x8, addend: 0x0, symName: __ZNKSt6vectorIZN7atcoder9mcf_graphIixE5slopeERNS0_8internal3csrINS2_5_edgeEEEiiiE1QSaIS8_EE5beginEv, symObjAddr: 0x6E3C, symBinAddr: 0x10000AE90, symSize: 0x24 }
  - { offset: 0x2440F, size: 0x8, addend: 0x0, symName: __ZN9__gnu_cxxeqIPKiSt6vectorIiSaIiEEEEbRKNS_17__normal_iteratorIT_T0_EESB_, symObjAddr: 0x6DF8, symBinAddr: 0x10000AE4C, symSize: 0x44 }
  - { offset: 0x2445D, size: 0x8, addend: 0x0, symName: __ZNSt6vectorIiSaIiEE17_M_realloc_appendIJRKiEEEvDpOT_, symObjAddr: 0x6BAC, symBinAddr: 0x10000AC00, symSize: 0x24C }
  - { offset: 0x245D9, size: 0x8, addend: 0x0, symName: __ZZNSt6vectorIiSaIiEE17_M_realloc_appendIJRKiEEEvDpOT_EN6_GuardC1EPimRS0_, symObjAddr: 0x6A50, symBinAddr: 0x10000AAA4, symSize: 0x44 }
  - { offset: 0x2461A, size: 0x8, addend: 0x0, symName: __ZZNSt6vectorIiSaIiEE17_M_realloc_appendIJRKiEEEvDpOT_EN6_GuardD1Ev, symObjAddr: 0x6A94, symBinAddr: 0x10000AAE8, symSize: 0x60 }
  - { offset: 0x247D4, size: 0x8, addend: 0x0, symName: __ZZNSt6vectorIiSaIiEE17_M_realloc_appendIJRKiEEEvDpOT_EN11_Guard_eltsC1EPiRS0_, symObjAddr: 0x6B1C, symBinAddr: 0x10000AB70, symSize: 0x44 }
  - { offset: 0x2480D, size: 0x8, addend: 0x0, symName: __ZZNSt6vectorIiSaIiEE17_M_realloc_appendIJRKiEEEvDpOT_EN11_Guard_eltsD1Ev, symObjAddr: 0x6B60, symBinAddr: 0x10000ABB4, symSize: 0x4C }
  - { offset: 0x24861, size: 0x8, addend: 0x0, symName: __ZNSt6vectorIiSaIiEE19_S_nothrow_relocateESt17integral_constantIbLb1EE, symObjAddr: 0x6B08, symBinAddr: 0x10000AB5C, symSize: 0x14 }
  - { offset: 0x24882, size: 0x8, addend: 0x0, symName: __ZNSt6vectorIiSaIiEE15_S_use_relocateEv, symObjAddr: 0x6AF4, symBinAddr: 0x10000AB48, symSize: 0x14 }
  - { offset: 0x248E1, size: 0x8, addend: 0x0, symName: __ZNSt6vectorIZN7atcoder9mcf_graphIixE5slopeERNS0_8internal3csrINS2_5_edgeEEEiiiE1QSaIS8_EE15_M_erase_at_endEPS8_, symObjAddr: 0x69C8, symBinAddr: 0x10000AA1C, symSize: 0x88 }
  - { offset: 0x2496E, size: 0x8, addend: 0x0, symName: __ZNSt6vectorIiSaIiEE15_M_erase_at_endEPi, symObjAddr: 0x6940, symBinAddr: 0x10000A994, symSize: 0x88 }
  - { offset: 0x249F7, size: 0x8, addend: 0x0, symName: __ZSt8__fill_aISt13_Bit_iteratorbEvT_S1_RKT0_, symObjAddr: 0x68F0, symBinAddr: 0x10000A944, symSize: 0x50 }
  - { offset: 0x24A90, size: 0x8, addend: 0x0, symName: __ZNSt12_Vector_baseIZN7atcoder9mcf_graphIixE5slopeERNS0_8internal3csrINS2_5_edgeEEEiiiE1QSaIS8_EE19_M_get_Tp_allocatorEv, symObjAddr: 0x68DC, symBinAddr: 0x10000A930, symSize: 0x14 }
  - { offset: 0x24AB8, size: 0x8, addend: 0x0, symName: __ZNSt12_Vector_baseIZN7atcoder9mcf_graphIixE5slopeERNS0_8internal3csrINS2_5_edgeEEEiiiE1QSaIS8_EE13_M_deallocateEPS8_m, symObjAddr: 0x6884, symBinAddr: 0x10000A8D8, symSize: 0x58 }
  - { offset: 0x24B57, size: 0x8, addend: 0x0, symName: __ZNSt15__new_allocatorIZN7atcoder9mcf_graphIixE5slopeERNS0_8internal3csrINS2_5_edgeEEEiiiE1QED2Ev, symObjAddr: 0x6870, symBinAddr: 0x10000A8C4, symSize: 0x14 }
  - { offset: 0x24B96, size: 0x8, addend: 0x0, symName: __ZNSt12_Vector_baseIZN7atcoder9mcf_graphIixE5slopeERNS0_8internal3csrINS2_5_edgeEEEiiiE1QSaIS8_EE17_Vector_impl_dataC2Ev, symObjAddr: 0x6844, symBinAddr: 0x10000A898, symSize: 0x2C }
  - { offset: 0x24BEB, size: 0x8, addend: 0x0, symName: __ZNSt12_Vector_baseIiSaIiEE17_Vector_impl_dataC2Ev, symObjAddr: 0x6818, symBinAddr: 0x10000A86C, symSize: 0x2C }
  - { offset: 0x24C34, size: 0x8, addend: 0x0, symName: __ZNSt13_Bvector_baseISaIbEED2Ev, symObjAddr: 0x67F0, symBinAddr: 0x10000A844, symSize: 0x28 }
  - { offset: 0x24C81, size: 0x8, addend: 0x0, symName: __ZNSt13_Bvector_baseISaIbEE13_Bvector_implD1Ev, symObjAddr: 0x67C4, symBinAddr: 0x10000A818, symSize: 0x2C }
  - { offset: 0x24D0C, size: 0x8, addend: 0x0, symName: __ZNSt6vectorIbSaIbEEC1EmRKbRKS0_, symObjAddr: 0x6758, symBinAddr: 0x10000A7AC, symSize: 0x6C }
  - { offset: 0x24D6D, size: 0x8, addend: 0x0, symName: __ZNSt15__new_allocatorIbED2Ev, symObjAddr: 0x6744, symBinAddr: 0x10000A798, symSize: 0x14 }
  - { offset: 0x24DE2, size: 0x8, addend: 0x0, symName: __ZNSt12_Vector_baseISt4pairIxxESaIS1_EE19_M_get_Tp_allocatorEv, symObjAddr: 0x6730, symBinAddr: 0x10000A784, symSize: 0x14 }
  - { offset: 0x24E0A, size: 0x8, addend: 0x0, symName: __ZNSt6vectorISt4pairIxxESaIS1_EE21_M_default_initializeEm, symObjAddr: 0x66E0, symBinAddr: 0x10000A734, symSize: 0x50 }
  - { offset: 0x24E67, size: 0x8, addend: 0x0, symName: __ZNSt12_Vector_baseISt4pairIxxESaIS1_EED2Ev, symObjAddr: 0x6690, symBinAddr: 0x10000A6E4, symSize: 0x50 }
  - { offset: 0x24EC2, size: 0x8, addend: 0x0, symName: __ZNSt12_Vector_baseISt4pairIxxESaIS1_EEC2EmRKS2_, symObjAddr: 0x663C, symBinAddr: 0x10000A690, symSize: 0x54 }
  - { offset: 0x24F1E, size: 0x8, addend: 0x0, symName: __ZNSt12_Vector_baseISt4pairIxxESaIS1_EE12_Vector_implD1Ev, symObjAddr: 0x6610, symBinAddr: 0x10000A664, symSize: 0x2C }
  - { offset: 0x24F60, size: 0x8, addend: 0x0, symName: __ZNSt6vectorISt4pairIxxESaIS1_EE17_S_check_init_lenEmRKS2_, symObjAddr: 0x658C, symBinAddr: 0x10000A5E0, symSize: 0x84 }
  - { offset: 0x25033, size: 0x8, addend: 0x0, symName: __ZNSt15__new_allocatorISt4pairIxxEED2Ev, symObjAddr: 0x6578, symBinAddr: 0x10000A5CC, symSize: 0x14 }
  - { offset: 0x25103, size: 0x8, addend: 0x0, symName: __ZSt8_DestroyIPN7atcoder9mcf_graphIixE5_edgeEEvT_S5_, symObjAddr: 0x6550, symBinAddr: 0x10000A5A4, symSize: 0x28 }
  - { offset: 0x25142, size: 0x8, addend: 0x0, symName: __ZSt22__uninitialized_copy_aIN9__gnu_cxx17__normal_iteratorIPKiSt6vectorIiSaIiEEEEPiiET0_T_SA_S9_RSaIT1_E, symObjAddr: 0x6520, symBinAddr: 0x10000A574, symSize: 0x30 }
  - { offset: 0x251B1, size: 0x8, addend: 0x0, symName: __ZNKSt6vectorIiSaIiEE3endEv, symObjAddr: 0x64F8, symBinAddr: 0x10000A54C, symSize: 0x28 }
  - { offset: 0x251D9, size: 0x8, addend: 0x0, symName: __ZNKSt6vectorIiSaIiEE5beginEv, symObjAddr: 0x64D4, symBinAddr: 0x10000A528, symSize: 0x24 }
  - { offset: 0x25216, size: 0x8, addend: 0x0, symName: __ZNKSt12_Vector_baseIiSaIiEE19_M_get_Tp_allocatorEv, symObjAddr: 0x64C0, symBinAddr: 0x10000A514, symSize: 0x14 }
  - { offset: 0x2523E, size: 0x8, addend: 0x0, symName: __ZNKSt6vectorIiSaIiEE4sizeEv, symObjAddr: 0x6498, symBinAddr: 0x10000A4EC, symSize: 0x28 }
  - { offset: 0x25266, size: 0x8, addend: 0x0, symName: __ZNK9__gnu_cxx17__normal_iteratorIPKSt4pairIiN7atcoder9mcf_graphIixE5_edgeEESt6vectorIS6_SaIS6_EEE4baseEv, symObjAddr: 0x6484, symBinAddr: 0x10000A4D8, symSize: 0x14 }
  - { offset: 0x252B7, size: 0x8, addend: 0x0, symName: __ZN9__gnu_cxx17__normal_iteratorIPKSt4pairIiN7atcoder9mcf_graphIixE5_edgeEESt6vectorIS6_SaIS6_EEEC1ERKS8_, symObjAddr: 0x645C, symBinAddr: 0x10000A4B0, symSize: 0x28 }
  - { offset: 0x252E3, size: 0x8, addend: 0x0, symName: __ZNSt6vectorIN7atcoder9mcf_graphIixE5_edgeESaIS3_EE21_M_default_initializeEm, symObjAddr: 0x640C, symBinAddr: 0x10000A460, symSize: 0x50 }
  - { offset: 0x25352, size: 0x8, addend: 0x0, symName: __ZNSt12_Vector_baseIN7atcoder9mcf_graphIixE5_edgeESaIS3_EEC2EmRKS4_, symObjAddr: 0x63B8, symBinAddr: 0x10000A40C, symSize: 0x54 }
  - { offset: 0x25382, size: 0x8, addend: 0x0, symName: __ZNSt6vectorIN7atcoder9mcf_graphIixE5_edgeESaIS3_EE17_S_check_init_lenEmRKS4_, symObjAddr: 0x6334, symBinAddr: 0x10000A388, symSize: 0x84 }
  - { offset: 0x25446, size: 0x8, addend: 0x0, symName: __ZNSt6vectorISt4pairIiN7atcoder9mcf_graphIixE5_edgeEESaIS5_EE17_M_realloc_appendIJS5_EEEvDpOT_, symObjAddr: 0x60D8, symBinAddr: 0x10000A12C, symSize: 0x25C }
  - { offset: 0x255C2, size: 0x8, addend: 0x0, symName: __ZZNSt6vectorISt4pairIiN7atcoder9mcf_graphIixE5_edgeEESaIS5_EE17_M_realloc_appendIJS5_EEEvDpOT_EN6_GuardC1EPS5_mRS6_, symObjAddr: 0x5FA4, symBinAddr: 0x100009FF8, symSize: 0x44 }
  - { offset: 0x25603, size: 0x8, addend: 0x0, symName: __ZZNSt6vectorISt4pairIiN7atcoder9mcf_graphIixE5_edgeEESaIS5_EE17_M_realloc_appendIJS5_EEEvDpOT_EN6_GuardD1Ev, symObjAddr: 0x5FE8, symBinAddr: 0x10000A03C, symSize: 0x60 }
  - { offset: 0x257BD, size: 0x8, addend: 0x0, symName: __ZZNSt6vectorISt4pairIiN7atcoder9mcf_graphIixE5_edgeEESaIS5_EE17_M_realloc_appendIJS5_EEEvDpOT_EN11_Guard_eltsC1EPS5_RS6_, symObjAddr: 0x6048, symBinAddr: 0x10000A09C, symSize: 0x44 }
  - { offset: 0x257F6, size: 0x8, addend: 0x0, symName: __ZZNSt6vectorISt4pairIiN7atcoder9mcf_graphIixE5_edgeEESaIS5_EE17_M_realloc_appendIJS5_EEEvDpOT_EN11_Guard_eltsD1Ev, symObjAddr: 0x608C, symBinAddr: 0x10000A0E0, symSize: 0x4C }
  - { offset: 0x25894, size: 0x8, addend: 0x0, symName: __ZSt7forwardISt4pairIiN7atcoder9mcf_graphIixE5_edgeEEEOT_RNSt16remove_referenceIS6_E4typeE, symObjAddr: 0x5F90, symBinAddr: 0x100009FE4, symSize: 0x14 }
  - { offset: 0x258C4, size: 0x8, addend: 0x0, symName: __ZSt22__uninitialized_copy_aISt13move_iteratorIPSt4pairIiN7atcoder9mcf_graphIixE5_edgeEEES7_S6_ET0_T_SA_S9_RSaIT1_E, symObjAddr: 0x5F60, symBinAddr: 0x100009FB4, symSize: 0x30 }
  - { offset: 0x2595C, size: 0x8, addend: 0x0, symName: __ZNSt13move_iteratorIPSt4pairIiN7atcoder9mcf_graphIixE5_edgeEEEC1ES6_, symObjAddr: 0x5F30, symBinAddr: 0x100009F84, symSize: 0x30 }
  - { offset: 0x25984, size: 0x8, addend: 0x0, symName: __ZNSt6vectorISt4pairIiN7atcoder9mcf_graphIixE5_edgeEESaIS5_EE14_S_do_relocateEPS5_S8_S8_RS6_St17integral_constantIbLb1EE, symObjAddr: 0x5EF8, symBinAddr: 0x100009F4C, symSize: 0x38 }
  - { offset: 0x25A0C, size: 0x8, addend: 0x0, symName: __ZNKSt12_Vector_baseISt4pairIiN7atcoder9mcf_graphIixE5_edgeEESaIS5_EE19_M_get_Tp_allocatorEv, symObjAddr: 0x5EE4, symBinAddr: 0x100009F38, symSize: 0x14 }
  - { offset: 0x25A30, size: 0x8, addend: 0x0, symName: __ZNSt6vectorISt4pairIiN7atcoder9mcf_graphIixE5_edgeEESaIS5_EE11_S_max_sizeERKS6_, symObjAddr: 0x5E90, symBinAddr: 0x100009EE4, symSize: 0x54 }
  - { offset: 0x25ADE, size: 0x8, addend: 0x0, symName: __ZSt8_DestroyIPSt4pairIiN7atcoder9mcf_graphIixE5_edgeEEEvT_S7_, symObjAddr: 0x5E68, symBinAddr: 0x100009EBC, symSize: 0x28 }
  - { offset: 0x25B65, size: 0x8, addend: 0x0, symName: __ZSt8_DestroyIPiEvT_S1_, symObjAddr: 0x5E40, symBinAddr: 0x100009E94, symSize: 0x28 }
  - { offset: 0x25BA4, size: 0x8, addend: 0x0, symName: __ZSt27__uninitialized_default_n_aIPimiET_S1_T0_RSaIT1_E, symObjAddr: 0x5E18, symBinAddr: 0x100009E6C, symSize: 0x28 }
  - { offset: 0x25C03, size: 0x8, addend: 0x0, symName: __ZNSt12_Vector_baseIiSaIiEE17_M_create_storageEm, symObjAddr: 0x5DB8, symBinAddr: 0x100009E0C, symSize: 0x60 }
  - { offset: 0x25C63, size: 0x8, addend: 0x0, symName: __ZNSt12_Vector_baseIiSaIiEE12_Vector_implC1ERKS0_, symObjAddr: 0x5D6C, symBinAddr: 0x100009DC0, symSize: 0x4C }
  - { offset: 0x25CDF, size: 0x8, addend: 0x0, symName: __ZNSt6vectorIiSaIiEE11_S_max_sizeERKS0_, symObjAddr: 0x5D18, symBinAddr: 0x100009D6C, symSize: 0x54 }
  - { offset: 0x25D8D, size: 0x8, addend: 0x0, symName: __ZSt34__uninitialized_move_if_noexcept_aIPN7atcoder9mcf_graphIixE4edgeES4_SaIS3_EET0_T_S7_S6_RT1_, symObjAddr: 0x5CC8, symBinAddr: 0x100009D1C, symSize: 0x50 }
  - { offset: 0x25E00, size: 0x8, addend: 0x0, symName: __ZNSt6vectorIN7atcoder9mcf_graphIixE4edgeESaIS3_EE11_S_relocateEPS3_S6_S6_RS4_, symObjAddr: 0x5C94, symBinAddr: 0x100009CE8, symSize: 0x34 }
  - { offset: 0x25E58, size: 0x8, addend: 0x0, symName: __ZSt12__to_addressIN7atcoder9mcf_graphIixE4edgeEEPT_S5_, symObjAddr: 0x5C80, symBinAddr: 0x100009CD4, symSize: 0x14 }
  - { offset: 0x25E8C, size: 0x8, addend: 0x0, symName: __ZNSt12_Vector_baseIN7atcoder9mcf_graphIixE4edgeESaIS3_EE11_M_allocateEm, symObjAddr: 0x5C30, symBinAddr: 0x100009C84, symSize: 0x50 }
  - { offset: 0x25EF0, size: 0x8, addend: 0x0, symName: __ZN9__gnu_cxxmiIPN7atcoder9mcf_graphIixE4edgeESt6vectorIS4_SaIS4_EEEENS_17__normal_iteratorIT_T0_E15difference_typeERKSC_SF_, symObjAddr: 0x5BE4, symBinAddr: 0x100009C38, symSize: 0x4C }
  - { offset: 0x25F3E, size: 0x8, addend: 0x0, symName: __ZNSt6vectorIN7atcoder9mcf_graphIixE4edgeESaIS3_EE5beginEv, symObjAddr: 0x5BC0, symBinAddr: 0x100009C14, symSize: 0x24 }
  - { offset: 0x25F66, size: 0x8, addend: 0x0, symName: __ZNSt6vectorIN7atcoder9mcf_graphIixE4edgeESaIS3_EE3endEv, symObjAddr: 0x5B98, symBinAddr: 0x100009BEC, symSize: 0x28 }
  - { offset: 0x25F8E, size: 0x8, addend: 0x0, symName: __ZNKSt6vectorIN7atcoder9mcf_graphIixE4edgeESaIS3_EE12_M_check_lenEmPKc, symObjAddr: 0x5AC8, symBinAddr: 0x100009B1C, symSize: 0xD0 }
  - { offset: 0x26027, size: 0x8, addend: 0x0, symName: __ZNSt15__new_allocatorIN7atcoder9mcf_graphIixE4edgeEE10deallocateEPS3_m, symObjAddr: 0x5A88, symBinAddr: 0x100009ADC, symSize: 0x40 }
  - { offset: 0x26069, size: 0x8, addend: 0x0, symName: __ZSt8_DestroyISt6vectorIxSaIxEEEvPT_, symObjAddr: 0x5A68, symBinAddr: 0x100009ABC, symSize: 0x20 }
  - { offset: 0x26099, size: 0x8, addend: 0x0, symName: __ZSt11__addressofISt6vectorIxSaIxEEEPT_RS3_, symObjAddr: 0x5A54, symBinAddr: 0x100009AA8, symSize: 0x14 }
  - { offset: 0x260C9, size: 0x8, addend: 0x0, symName: __ZNSt22__uninitialized_fill_nILb0EE15__uninit_fill_nIPSt6vectorIxSaIxEEmS4_EET_S6_T0_RKT1_, symObjAddr: 0x5A28, symBinAddr: 0x100009A7C, symSize: 0x2C }
  - { offset: 0x26130, size: 0x8, addend: 0x0, symName: __ZNSt15__new_allocatorISt6vectorIxSaIxEEE10deallocateEPS2_m, symObjAddr: 0x59E8, symBinAddr: 0x100009A3C, symSize: 0x40 }
  - { offset: 0x261AC, size: 0x8, addend: 0x0, symName: __ZNSt27__uninitialized_default_n_1ILb1EE18__uninit_default_nIPxmEET_S3_T0_, symObjAddr: 0x5984, symBinAddr: 0x1000099D8, symSize: 0x64 }
  - { offset: 0x26223, size: 0x8, addend: 0x0, symName: __ZNSt15__new_allocatorIxE10deallocateEPxm, symObjAddr: 0x5950, symBinAddr: 0x1000099A4, symSize: 0x34 }
  - { offset: 0x2629F, size: 0x8, addend: 0x0, symName: __ZSt18uninitialized_copyIN9__gnu_cxx17__normal_iteratorIPKN7atcoder9mcf_graphIixE4edgeESt6vectorIS5_SaIS5_EEEEPS5_ET0_T_SE_SD_, symObjAddr: 0x5914, symBinAddr: 0x100009968, symSize: 0x3C }
  - { offset: 0x26318, size: 0x8, addend: 0x0, symName: __ZNSt12_Vector_baseIN7atcoder9mcf_graphIixE4edgeESaIS3_EE17_M_create_storageEm, symObjAddr: 0x58A8, symBinAddr: 0x1000098FC, symSize: 0x6C }
  - { offset: 0x26378, size: 0x8, addend: 0x0, symName: __ZNSt12_Vector_baseIN7atcoder9mcf_graphIixE4edgeESaIS3_EE12_Vector_implC1ERKS4_, symObjAddr: 0x585C, symBinAddr: 0x1000098B0, symSize: 0x4C }
  - { offset: 0x2642D, size: 0x8, addend: 0x0, symName: __ZNSt12_Destroy_auxILb0EE9__destroyIPNSt7__cxx1112basic_stringIcSt11char_traitsIcESaIcEEEEEvT_S9_, symObjAddr: 0x5810, symBinAddr: 0x100009864, symSize: 0x4C }
  - { offset: 0x2646C, size: 0x8, addend: 0x0, symName: __ZSt20uninitialized_fill_nIPNSt7__cxx1112basic_stringIcSt11char_traitsIcESaIcEEEmS5_ET_S7_T0_RKT1_, symObjAddr: 0x57E0, symBinAddr: 0x100009834, symSize: 0x30 }
  - { offset: 0x26515, size: 0x8, addend: 0x0, symName: __ZNSt12_Vector_baseINSt7__cxx1112basic_stringIcSt11char_traitsIcESaIcEEESaIS5_EE11_M_allocateEm, symObjAddr: 0x5790, symBinAddr: 0x1000097E4, symSize: 0x50 }
  - { offset: 0x26592, size: 0x8, addend: 0x0, symName: __ZNSt12_Vector_baseINSt7__cxx1112basic_stringIcSt11char_traitsIcESaIcEEESaIS5_EE17_Vector_impl_dataC2Ev, symObjAddr: 0x5764, symBinAddr: 0x1000097B8, symSize: 0x2C }
  - { offset: 0x26610, size: 0x8, addend: 0x0, symName: __ZN9__gnu_cxx17__normal_iteratorIPSt4pairIixESt6vectorIS2_SaIS2_EEEC1ERKS3_, symObjAddr: 0x573C, symBinAddr: 0x100009790, symSize: 0x28 }
  - { offset: 0x26638, size: 0x8, addend: 0x0, symName: __ZSt8_DestroyIPSt4pairIixEEvT_S3_, symObjAddr: 0x5714, symBinAddr: 0x100009768, symSize: 0x28 }
  - { offset: 0x2667B, size: 0x8, addend: 0x0, symName: __ZNSt12_Vector_baseISt4pairIixESaIS1_EE13_M_deallocateEPS1_m, symObjAddr: 0x56BC, symBinAddr: 0x100009710, symSize: 0x58 }
  - { offset: 0x2671A, size: 0x8, addend: 0x0, symName: __ZNSt15__new_allocatorISt4pairIixEED2Ev, symObjAddr: 0x56A8, symBinAddr: 0x1000096FC, symSize: 0x14 }
  - { offset: 0x26761, size: 0x8, addend: 0x0, symName: __ZNSt6vectorISt4pairIixESaIS1_EE9push_backEOS1_, symObjAddr: 0x5678, symBinAddr: 0x1000096CC, symSize: 0x30 }
  - { offset: 0x267E2, size: 0x8, addend: 0x0, symName: __ZNSt4pairIixEC1IRiRxLb1EEEOT_OT0_, symObjAddr: 0x5630, symBinAddr: 0x100009684, symSize: 0x48 }
  - { offset: 0x26828, size: 0x8, addend: 0x0, symName: __ZNSt6vectorISt4pairIixESaIS1_EE8pop_backEv, symObjAddr: 0x55DC, symBinAddr: 0x100009630, symSize: 0x54 }
  - { offset: 0x268A0, size: 0x8, addend: 0x0, symName: __ZSt3minIiERKT_S2_S2_, symObjAddr: 0x55A4, symBinAddr: 0x1000095F8, symSize: 0x38 }
  - { offset: 0x2691A, size: 0x8, addend: 0x0, symName: __ZNSt6vectorISt4pairIixESaIS1_EEC1ESt16initializer_listIS1_ERKS2_, symObjAddr: 0x5534, symBinAddr: 0x100009588, symSize: 0x70 }
  - { offset: 0x26964, size: 0x8, addend: 0x0, symName: __ZNSt6vectorIZN7atcoder9mcf_graphIixE5slopeERNS0_8internal3csrINS2_5_edgeEEEiiiE1QSaIS8_EE9push_backEOS8_, symObjAddr: 0x5504, symBinAddr: 0x100009558, symSize: 0x30 }
  - { offset: 0x2699C, size: 0x8, addend: 0x0, symName: __ZNSt6vectorIbSaIbEEixEm, symObjAddr: 0x54D4, symBinAddr: 0x100009528, symSize: 0x30 }
  - { offset: 0x269D4, size: 0x8, addend: 0x0, symName: __ZNSt6vectorIZN7atcoder9mcf_graphIixE5slopeERNS0_8internal3csrINS2_5_edgeEEEiiiE1QSaIS8_EE8pop_backEv, symObjAddr: 0x5480, symBinAddr: 0x1000094D4, symSize: 0x54 }
  - { offset: 0x26A4C, size: 0x8, addend: 0x0, symName: __ZSt8pop_heapIN9__gnu_cxx17__normal_iteratorIPZN7atcoder9mcf_graphIixE5slopeERNS2_8internal3csrINS4_5_edgeEEEiiiE1QSt6vectorISA_SaISA_EEEEEvT_SG_, symObjAddr: 0x5420, symBinAddr: 0x100009474, symSize: 0x60 }
  - { offset: 0x26AB4, size: 0x8, addend: 0x0, symName: __ZNSt6vectorIZN7atcoder9mcf_graphIixE5slopeERNS0_8internal3csrINS2_5_edgeEEEiiiE1QSaIS8_EE3endEv, symObjAddr: 0x53F8, symBinAddr: 0x10000944C, symSize: 0x28 }
  - { offset: 0x26ADC, size: 0x8, addend: 0x0, symName: __ZNSt6vectorIZN7atcoder9mcf_graphIixE5slopeERNS0_8internal3csrINS2_5_edgeEEEiiiE1QSaIS8_EE5frontEv, symObjAddr: 0x53D0, symBinAddr: 0x100009424, symSize: 0x28 }
  - { offset: 0x26B00, size: 0x8, addend: 0x0, symName: __ZSt9push_heapIN9__gnu_cxx17__normal_iteratorIPZN7atcoder9mcf_graphIixE5slopeERNS2_8internal3csrINS4_5_edgeEEEiiiE1QSt6vectorISA_SaISA_EEEEEvT_SG_, symObjAddr: 0x5354, symBinAddr: 0x1000093A8, symSize: 0x7C }
  - { offset: 0x26B79, size: 0x8, addend: 0x0, symName: __ZNK9__gnu_cxx17__normal_iteratorIPZN7atcoder9mcf_graphIixE5slopeERNS1_8internal3csrINS3_5_edgeEEEiiiE1QSt6vectorIS9_SaIS9_EEEplEl, symObjAddr: 0x5314, symBinAddr: 0x100009368, symSize: 0x40 }
  - { offset: 0x26BB1, size: 0x8, addend: 0x0, symName: __ZNSt6vectorIZN7atcoder9mcf_graphIixE5slopeERNS0_8internal3csrINS2_5_edgeEEEiiiE1QSaIS8_EE5beginEv, symObjAddr: 0x52F0, symBinAddr: 0x100009344, symSize: 0x24 }
  - { offset: 0x26BD9, size: 0x8, addend: 0x0, symName: __ZNKSt6vectorIZN7atcoder9mcf_graphIixE5slopeERNS0_8internal3csrINS2_5_edgeEEEiiiE1QSaIS8_EE4sizeEv, symObjAddr: 0x52C8, symBinAddr: 0x10000931C, symSize: 0x28 }
  - { offset: 0x26C01, size: 0x8, addend: 0x0, symName: __ZNSt6vectorIiSaIiEE8pop_backEv, symObjAddr: 0x5274, symBinAddr: 0x1000092C8, symSize: 0x54 }
  - { offset: 0x26C7D, size: 0x8, addend: 0x0, symName: __ZNSt6vectorIiSaIiEE4backEv, symObjAddr: 0x523C, symBinAddr: 0x100009290, symSize: 0x38 }
  - { offset: 0x26CA5, size: 0x8, addend: 0x0, symName: __ZNKSt6vectorIZN7atcoder9mcf_graphIixE5slopeERNS0_8internal3csrINS2_5_edgeEEEiiiE1QSaIS8_EE5emptyEv, symObjAddr: 0x5204, symBinAddr: 0x100009258, symSize: 0x38 }
  - { offset: 0x26CCD, size: 0x8, addend: 0x0, symName: __ZNKSt6vectorIiSaIiEE5emptyEv, symObjAddr: 0x51CC, symBinAddr: 0x100009220, symSize: 0x38 }
  - { offset: 0x26CF5, size: 0x8, addend: 0x0, symName: __ZNSt6vectorIiSaIiEE9push_backERKi, symObjAddr: 0x5104, symBinAddr: 0x100009158, symSize: 0xC8 }
  - { offset: 0x26D91, size: 0x8, addend: 0x0, symName: __ZNSt6vectorIZN7atcoder9mcf_graphIixE5slopeERNS0_8internal3csrINS2_5_edgeEEEiiiE1QSaIS8_EE5clearEv, symObjAddr: 0x50D8, symBinAddr: 0x10000912C, symSize: 0x2C }
  - { offset: 0x26DB9, size: 0x8, addend: 0x0, symName: __ZNSt6vectorIiSaIiEE5clearEv, symObjAddr: 0x50AC, symBinAddr: 0x100009100, symSize: 0x2C }
  - { offset: 0x26DE1, size: 0x8, addend: 0x0, symName: __ZNSt6vectorIbSaIbEE3endEv, symObjAddr: 0x5074, symBinAddr: 0x1000090C8, symSize: 0x38 }
  - { offset: 0x26E09, size: 0x8, addend: 0x0, symName: __ZNSt6vectorIbSaIbEE5beginEv, symObjAddr: 0x5024, symBinAddr: 0x100009078, symSize: 0x50 }
  - { offset: 0x26E2D, size: 0x8, addend: 0x0, symName: __ZSt4fillISt13_Bit_iteratorbEvT_S1_RKT0_, symObjAddr: 0x4FD4, symBinAddr: 0x100009028, symSize: 0x50 }
  - { offset: 0x26E8B, size: 0x8, addend: 0x0, symName: __ZNSt6vectorISt4pairIxxESaIS1_EEixEm, symObjAddr: 0x4FAC, symBinAddr: 0x100009000, symSize: 0x28 }
  - { offset: 0x26EE8, size: 0x8, addend: 0x0, symName: __ZNSt6vectorIZN7atcoder9mcf_graphIixE5slopeERNS0_8internal3csrINS2_5_edgeEEEiiiE1QSaIS8_EED1Ev, symObjAddr: 0x4F50, symBinAddr: 0x100008FA4, symSize: 0x5C }
  - { offset: 0x26F63, size: 0x8, addend: 0x0, symName: __ZNSt12_Vector_baseIZN7atcoder9mcf_graphIixE5slopeERNS0_8internal3csrINS2_5_edgeEEEiiiE1QSaIS8_EED2Ev, symObjAddr: 0x4F00, symBinAddr: 0x100008F54, symSize: 0x50 }
  - { offset: 0x26FC2, size: 0x8, addend: 0x0, symName: __ZNSt12_Vector_baseIZN7atcoder9mcf_graphIixE5slopeERNS0_8internal3csrINS2_5_edgeEEEiiiE1QSaIS8_EE12_Vector_implC1Ev, symObjAddr: 0x4EC8, symBinAddr: 0x100008F1C, symSize: 0x38 }
  - { offset: 0x27045, size: 0x8, addend: 0x0, symName: __ZNSt12_Vector_baseIiSaIiEE12_Vector_implC1Ev, symObjAddr: 0x4E90, symBinAddr: 0x100008EE4, symSize: 0x38 }
  - { offset: 0x270D2, size: 0x8, addend: 0x0, symName: __ZNSt6vectorIbSaIbEED1Ev, symObjAddr: 0x4E70, symBinAddr: 0x100008EC4, symSize: 0x20 }
  - { offset: 0x2712D, size: 0x8, addend: 0x0, symName: __ZNSt6vectorIbSaIbEEC1EmRKS0_, symObjAddr: 0x4E34, symBinAddr: 0x100008E88, symSize: 0x3C }
  - { offset: 0x271BC, size: 0x8, addend: 0x0, symName: __ZNSt6vectorISt4pairIxxESaIS1_EED1Ev, symObjAddr: 0x4DD8, symBinAddr: 0x100008E2C, symSize: 0x5C }
  - { offset: 0x27249, size: 0x8, addend: 0x0, symName: __ZNSt6vectorISt4pairIxxESaIS1_EEC1EmRKS2_, symObjAddr: 0x4D70, symBinAddr: 0x100008DC4, symSize: 0x68 }
  - { offset: 0x272B3, size: 0x8, addend: 0x0, symName: __ZNSt12_Vector_baseIN7atcoder9mcf_graphIixE5_edgeESaIS3_EE13_M_deallocateEPS3_m, symObjAddr: 0x4D18, symBinAddr: 0x100008D6C, symSize: 0x58 }
  - { offset: 0x27352, size: 0x8, addend: 0x0, symName: __ZNSt15__new_allocatorIN7atcoder9mcf_graphIixE5_edgeEED2Ev, symObjAddr: 0x4D04, symBinAddr: 0x100008D58, symSize: 0x14 }
  - { offset: 0x27399, size: 0x8, addend: 0x0, symName: __ZNSt12_Vector_baseIiSaIiEE13_M_deallocateEPim, symObjAddr: 0x4CAC, symBinAddr: 0x100008D00, symSize: 0x58 }
  - { offset: 0x27471, size: 0x8, addend: 0x0, symName: __ZNSt12_Vector_baseIN7atcoder9mcf_graphIixE5_edgeESaIS3_EE19_M_get_Tp_allocatorEv, symObjAddr: 0x4C98, symBinAddr: 0x100008CEC, symSize: 0x14 }
  - { offset: 0x274C2, size: 0x8, addend: 0x0, symName: __ZNSt6vectorIiSaIiEEC1ERKS1_, symObjAddr: 0x4B84, symBinAddr: 0x100008BD8, symSize: 0x114 }
  - { offset: 0x275C8, size: 0x8, addend: 0x0, symName: __ZNK9__gnu_cxx17__normal_iteratorIPKSt4pairIiN7atcoder9mcf_graphIixE5_edgeEESt6vectorIS6_SaIS6_EEEdeEv, symObjAddr: 0x4B6C, symBinAddr: 0x100008BC0, symSize: 0x18 }
  - { offset: 0x275F0, size: 0x8, addend: 0x0, symName: __ZN9__gnu_cxx17__normal_iteratorIPKSt4pairIiN7atcoder9mcf_graphIixE5_edgeEESt6vectorIS6_SaIS6_EEEppEv, symObjAddr: 0x4B44, symBinAddr: 0x100008B98, symSize: 0x28 }
  - { offset: 0x2761A, size: 0x8, addend: 0x0, symName: __ZN9__gnu_cxxneIPKSt4pairIiN7atcoder9mcf_graphIixE5_edgeEESt6vectorIS6_SaIS6_EEEEbRKNS_17__normal_iteratorIT_T0_EESH_, symObjAddr: 0x4B00, symBinAddr: 0x100008B54, symSize: 0x44 }
  - { offset: 0x27668, size: 0x8, addend: 0x0, symName: __ZNKSt6vectorISt4pairIiN7atcoder9mcf_graphIixE5_edgeEESaIS5_EE3endEv, symObjAddr: 0x4AD8, symBinAddr: 0x100008B2C, symSize: 0x28 }
  - { offset: 0x27690, size: 0x8, addend: 0x0, symName: __ZNKSt6vectorISt4pairIiN7atcoder9mcf_graphIixE5_edgeEESaIS5_EE5beginEv, symObjAddr: 0x4AB4, symBinAddr: 0x100008B08, symSize: 0x24 }
  - { offset: 0x276EF, size: 0x8, addend: 0x0, symName: __ZNSt6vectorIN7atcoder9mcf_graphIixE5_edgeESaIS3_EEC1EmRKS4_, symObjAddr: 0x4A4C, symBinAddr: 0x100008AA0, symSize: 0x68 }
  - { offset: 0x27739, size: 0x8, addend: 0x0, symName: __ZNSt6vectorISt4pairIiN7atcoder9mcf_graphIixE5_edgeEESaIS5_EE12emplace_backIJS5_EEEvDpOT_, symObjAddr: 0x4968, symBinAddr: 0x1000089BC, symSize: 0xE4 }
  - { offset: 0x277DF, size: 0x8, addend: 0x0, symName: __ZSt4moveIRSt4pairIiN7atcoder9mcf_graphIixE5_edgeEEEONSt16remove_referenceIT_E4typeEOS8_, symObjAddr: 0x4954, symBinAddr: 0x1000089A8, symSize: 0x14 }
  - { offset: 0x27813, size: 0x8, addend: 0x0, symName: __ZNSt6vectorISt4pairIiN7atcoder9mcf_graphIixE5_edgeEESaIS5_EE20_M_allocate_and_copyISt13move_iteratorIPS5_EEESA_mT_SC_, symObjAddr: 0x48D0, symBinAddr: 0x100008924, symSize: 0x84 }
  - { offset: 0x27880, size: 0x8, addend: 0x0, symName: __ZSt32__make_move_if_noexcept_iteratorISt4pairIiN7atcoder9mcf_graphIixE5_edgeEESt13move_iteratorIPS5_EET0_PT_, symObjAddr: 0x48AC, symBinAddr: 0x100008900, symSize: 0x24 }
  - { offset: 0x278BA, size: 0x8, addend: 0x0, symName: __ZNSt6vectorISt4pairIiN7atcoder9mcf_graphIixE5_edgeEESaIS5_EE11_S_relocateEPS5_S8_S8_RS6_, symObjAddr: 0x4878, symBinAddr: 0x1000088CC, symSize: 0x34 }
  - { offset: 0x27916, size: 0x8, addend: 0x0, symName: __ZNSt12_Vector_baseISt4pairIiN7atcoder9mcf_graphIixE5_edgeEESaIS5_EE11_M_allocateEm, symObjAddr: 0x4828, symBinAddr: 0x10000887C, symSize: 0x50 }
  - { offset: 0x27978, size: 0x8, addend: 0x0, symName: __ZNKSt6vectorISt4pairIiN7atcoder9mcf_graphIixE5_edgeEESaIS5_EE4sizeEv, symObjAddr: 0x4800, symBinAddr: 0x100008854, symSize: 0x28 }
  - { offset: 0x279A0, size: 0x8, addend: 0x0, symName: __ZNKSt6vectorISt4pairIiN7atcoder9mcf_graphIixE5_edgeEESaIS5_EE8capacityEv, symObjAddr: 0x47D8, symBinAddr: 0x10000882C, symSize: 0x28 }
  - { offset: 0x279C8, size: 0x8, addend: 0x0, symName: __ZNKSt6vectorISt4pairIiN7atcoder9mcf_graphIixE5_edgeEESaIS5_EE8max_sizeEv, symObjAddr: 0x47B8, symBinAddr: 0x10000880C, symSize: 0x20 }
  - { offset: 0x27A2B, size: 0x8, addend: 0x0, symName: __ZNSt12_Vector_baseISt4pairIiN7atcoder9mcf_graphIixE5_edgeEESaIS5_EE19_M_get_Tp_allocatorEv, symObjAddr: 0x47A4, symBinAddr: 0x1000087F8, symSize: 0x14 }
  - { offset: 0x27A53, size: 0x8, addend: 0x0, symName: __ZNSt12_Vector_baseISt4pairIiN7atcoder9mcf_graphIixE5_edgeEESaIS5_EE13_M_deallocateEPS5_m, symObjAddr: 0x474C, symBinAddr: 0x1000087A0, symSize: 0x58 }
  - { offset: 0x27AF2, size: 0x8, addend: 0x0, symName: __ZNSt15__new_allocatorISt4pairIiN7atcoder9mcf_graphIixE5_edgeEEED2Ev, symObjAddr: 0x4738, symBinAddr: 0x10000878C, symSize: 0x14 }
  - { offset: 0x27B31, size: 0x8, addend: 0x0, symName: __ZNSt12_Vector_baseISt4pairIiN7atcoder9mcf_graphIixE5_edgeEESaIS5_EE17_Vector_impl_dataC2Ev, symObjAddr: 0x470C, symBinAddr: 0x100008760, symSize: 0x2C }
  - { offset: 0x27BA6, size: 0x8, addend: 0x0, symName: __ZNSt12_Vector_baseIiSaIiEE19_M_get_Tp_allocatorEv, symObjAddr: 0x46F8, symBinAddr: 0x10000874C, symSize: 0x14 }
  - { offset: 0x27BCE, size: 0x8, addend: 0x0, symName: __ZNSt6vectorIiSaIiEE21_M_default_initializeEm, symObjAddr: 0x46A8, symBinAddr: 0x1000086FC, symSize: 0x50 }
  - { offset: 0x27C3D, size: 0x8, addend: 0x0, symName: __ZNSt12_Vector_baseIiSaIiEEC2EmRKS0_, symObjAddr: 0x4654, symBinAddr: 0x1000086A8, symSize: 0x54 }
  - { offset: 0x27C6D, size: 0x8, addend: 0x0, symName: __ZNSt6vectorIiSaIiEE17_S_check_init_lenEmRKS0_, symObjAddr: 0x45D0, symBinAddr: 0x100008624, symSize: 0x84 }
  - { offset: 0x27D40, size: 0x8, addend: 0x0, symName: __ZNSt15__new_allocatorIiED2Ev, symObjAddr: 0x45BC, symBinAddr: 0x100008610, symSize: 0x14 }
  - { offset: 0x27D7A, size: 0x8, addend: 0x0, symName: __ZNSt6vectorIN7atcoder9mcf_graphIixE4edgeESaIS3_EE17_M_realloc_appendIJS3_EEEvDpOT_, symObjAddr: 0x4324, symBinAddr: 0x100008378, symSize: 0x298 }
  - { offset: 0x27EF6, size: 0x8, addend: 0x0, symName: __ZZNSt6vectorIN7atcoder9mcf_graphIixE4edgeESaIS3_EE17_M_realloc_appendIJS3_EEEvDpOT_EN6_GuardC1EPS3_mRS4_, symObjAddr: 0x41C8, symBinAddr: 0x10000821C, symSize: 0x44 }
  - { offset: 0x27F37, size: 0x8, addend: 0x0, symName: __ZZNSt6vectorIN7atcoder9mcf_graphIixE4edgeESaIS3_EE17_M_realloc_appendIJS3_EEEvDpOT_EN6_GuardD1Ev, symObjAddr: 0x420C, symBinAddr: 0x100008260, symSize: 0x60 }
  - { offset: 0x280F1, size: 0x8, addend: 0x0, symName: __ZZNSt6vectorIN7atcoder9mcf_graphIixE4edgeESaIS3_EE17_M_realloc_appendIJS3_EEEvDpOT_EN11_Guard_eltsC1EPS3_RS4_, symObjAddr: 0x4294, symBinAddr: 0x1000082E8, symSize: 0x44 }
  - { offset: 0x2812A, size: 0x8, addend: 0x0, symName: __ZZNSt6vectorIN7atcoder9mcf_graphIixE4edgeESaIS3_EE17_M_realloc_appendIJS3_EEEvDpOT_EN11_Guard_eltsD1Ev, symObjAddr: 0x42D8, symBinAddr: 0x10000832C, symSize: 0x4C }
  - { offset: 0x2817E, size: 0x8, addend: 0x0, symName: __ZNSt6vectorIN7atcoder9mcf_graphIixE4edgeESaIS3_EE19_S_nothrow_relocateESt17integral_constantIbLb1EE, symObjAddr: 0x4280, symBinAddr: 0x1000082D4, symSize: 0x14 }
  - { offset: 0x2819F, size: 0x8, addend: 0x0, symName: __ZNSt6vectorIN7atcoder9mcf_graphIixE4edgeESaIS3_EE15_S_use_relocateEv, symObjAddr: 0x426C, symBinAddr: 0x1000082C0, symSize: 0x14 }
  - { offset: 0x28200, size: 0x8, addend: 0x0, symName: __ZSt7forwardIN7atcoder9mcf_graphIixE4edgeEEOT_RNSt16remove_referenceIS4_E4typeE, symObjAddr: 0x41B4, symBinAddr: 0x100008208, symSize: 0x14 }
  - { offset: 0x28230, size: 0x8, addend: 0x0, symName: __ZNSt12_Destroy_auxILb1EE9__destroyIPN7atcoder9mcf_graphIixE4edgeEEEvT_S7_, symObjAddr: 0x419C, symBinAddr: 0x1000081F0, symSize: 0x18 }
  - { offset: 0x282A9, size: 0x8, addend: 0x0, symName: __ZNSt12_Destroy_auxILb0EE9__destroyIPSt6vectorIxSaIxEEEEvT_S6_, symObjAddr: 0x4150, symBinAddr: 0x1000081A4, symSize: 0x4C }
  - { offset: 0x282E8, size: 0x8, addend: 0x0, symName: __ZSt20uninitialized_fill_nIPSt6vectorIxSaIxEEmS2_ET_S4_T0_RKT1_, symObjAddr: 0x4120, symBinAddr: 0x100008174, symSize: 0x30 }
  - { offset: 0x28391, size: 0x8, addend: 0x0, symName: __ZNSt12_Vector_baseISt6vectorIxSaIxEESaIS2_EE11_M_allocateEm, symObjAddr: 0x40D0, symBinAddr: 0x100008124, symSize: 0x50 }
  - { offset: 0x2840E, size: 0x8, addend: 0x0, symName: __ZNSt12_Vector_baseISt6vectorIxSaIxEESaIS2_EE17_Vector_impl_dataC2Ev, symObjAddr: 0x40A4, symBinAddr: 0x1000080F8, symSize: 0x2C }
  - { offset: 0x2845F, size: 0x8, addend: 0x0, symName: __ZNSt12_Destroy_auxILb1EE9__destroyIPxEEvT_S3_, symObjAddr: 0x408C, symBinAddr: 0x1000080E0, symSize: 0x18 }
  - { offset: 0x28490, size: 0x8, addend: 0x0, symName: __ZSt25__uninitialized_default_nIPxmET_S1_T0_, symObjAddr: 0x4060, symBinAddr: 0x1000080B4, symSize: 0x2C }
  - { offset: 0x28521, size: 0x8, addend: 0x0, symName: __ZNSt12_Vector_baseIxSaIxEE11_M_allocateEm, symObjAddr: 0x4010, symBinAddr: 0x100008064, symSize: 0x50 }
  - { offset: 0x2859E, size: 0x8, addend: 0x0, symName: __ZNSt12_Vector_baseIxSaIxEE17_Vector_impl_dataC2Ev, symObjAddr: 0x3FE4, symBinAddr: 0x100008038, symSize: 0x2C }
  - { offset: 0x285F3, size: 0x8, addend: 0x0, symName: __ZNSt15__new_allocatorImE10deallocateEPmm, symObjAddr: 0x3FB0, symBinAddr: 0x100008004, symSize: 0x34 }
  - { offset: 0x28635, size: 0x8, addend: 0x0, symName: __ZSt22__uninitialized_copy_aIN9__gnu_cxx17__normal_iteratorIPKN7atcoder9mcf_graphIixE4edgeESt6vectorIS5_SaIS5_EEEEPS5_S5_ET0_T_SE_SD_RSaIT1_E, symObjAddr: 0x3F80, symBinAddr: 0x100007FD4, symSize: 0x30 }
  - { offset: 0x286DB, size: 0x8, addend: 0x0, symName: __ZNSt12_Vector_baseIN7atcoder9mcf_graphIixE4edgeESaIS3_EEC2EmRKS4_, symObjAddr: 0x3F2C, symBinAddr: 0x100007F80, symSize: 0x54 }
  - { offset: 0x28724, size: 0x8, addend: 0x0, symName: __ZNKSt12_Vector_baseIN7atcoder9mcf_graphIixE4edgeESaIS3_EE19_M_get_Tp_allocatorEv, symObjAddr: 0x3F18, symBinAddr: 0x100007F6C, symSize: 0x14 }
  - { offset: 0x28748, size: 0x8, addend: 0x0, symName: __ZSt8_DestroyIPNSt7__cxx1112basic_stringIcSt11char_traitsIcESaIcEEEEvT_S7_, symObjAddr: 0x3EF0, symBinAddr: 0x100007F44, symSize: 0x28 }
  - { offset: 0x28787, size: 0x8, addend: 0x0, symName: __ZSt24__uninitialized_fill_n_aIPNSt7__cxx1112basic_stringIcSt11char_traitsIcESaIcEEEmS5_S5_ET_S7_T0_RKT1_RSaIT2_E, symObjAddr: 0x3EC0, symBinAddr: 0x100007F14, symSize: 0x30 }
  - { offset: 0x287FF, size: 0x8, addend: 0x0, symName: __ZNSt12_Vector_baseINSt7__cxx1112basic_stringIcSt11char_traitsIcESaIcEEESaIS5_EE13_M_deallocateEPS5_m, symObjAddr: 0x3E68, symBinAddr: 0x100007EBC, symSize: 0x58 }
  - { offset: 0x28879, size: 0x8, addend: 0x0, symName: __ZNSt12_Vector_baseINSt7__cxx1112basic_stringIcSt11char_traitsIcESaIcEEESaIS5_EE17_M_create_storageEm, symObjAddr: 0x3E08, symBinAddr: 0x100007E5C, symSize: 0x60 }
  - { offset: 0x288D9, size: 0x8, addend: 0x0, symName: __ZNSt12_Vector_baseINSt7__cxx1112basic_stringIcSt11char_traitsIcESaIcEEESaIS5_EE12_Vector_implC1ERKS6_, symObjAddr: 0x3DBC, symBinAddr: 0x100007E10, symSize: 0x4C }
  - { offset: 0x28978, size: 0x8, addend: 0x0, symName: __ZNSt6vectorINSt7__cxx1112basic_stringIcSt11char_traitsIcESaIcEEESaIS5_EE11_S_max_sizeERKS6_, symObjAddr: 0x3D68, symBinAddr: 0x100007DBC, symSize: 0x54 }
  - { offset: 0x28A2A, size: 0x8, addend: 0x0, symName: __ZNK9__gnu_cxx17__normal_iteratorIPSt4pairIixESt6vectorIS2_SaIS2_EEEdeEv, symObjAddr: 0x3D50, symBinAddr: 0x100007DA4, symSize: 0x18 }
  - { offset: 0x28A52, size: 0x8, addend: 0x0, symName: __ZNK9__gnu_cxx17__normal_iteratorIPSt4pairIixESt6vectorIS2_SaIS2_EEEmiEl, symObjAddr: 0x3D0C, symBinAddr: 0x100007D60, symSize: 0x44 }
  - { offset: 0x28A8A, size: 0x8, addend: 0x0, symName: __ZNSt6vectorISt4pairIixESaIS1_EE3endEv, symObjAddr: 0x3CE4, symBinAddr: 0x100007D38, symSize: 0x28 }
  - { offset: 0x28AED, size: 0x8, addend: 0x0, symName: __ZNSt12_Vector_baseISt4pairIixESaIS1_EE19_M_get_Tp_allocatorEv, symObjAddr: 0x3CD0, symBinAddr: 0x100007D24, symSize: 0x14 }
  - { offset: 0x28B3A, size: 0x8, addend: 0x0, symName: __ZNSt12_Vector_baseISt4pairIixESaIS1_EED2Ev, symObjAddr: 0x3C80, symBinAddr: 0x100007CD4, symSize: 0x50 }
  - { offset: 0x28B7E, size: 0x8, addend: 0x0, symName: __ZN7atcoder9mcf_graphIixE5slopeERNS_8internal3csrINS1_5_edgeEEEiii, symObjAddr: 0x3804, symBinAddr: 0x100007858, symSize: 0x47C }
  - { offset: 0x28C45, size: 0x8, addend: 0x0, symName: __ZZN7atcoder9mcf_graphIixE5slopeERNS_8internal3csrINS1_5_edgeEEEiiiENK1QltES7_, symObjAddr: 0x316C, symBinAddr: 0x1000071C0, symSize: 0x2C }
  - { offset: 0x28D98, size: 0x8, addend: 0x0, symName: __ZZN7atcoder9mcf_graphIixE5slopeERNS_8internal3csrINS1_5_edgeEEEiiiENKUlvE_clEv, symObjAddr: 0x3244, symBinAddr: 0x100007298, symSize: 0x5C0 }
  - { offset: 0x29272, size: 0x8, addend: 0x0, symName: __ZNSt6vectorIZN7atcoder9mcf_graphIixE5slopeERNS0_8internal3csrINS2_5_edgeEEEiiiE1QSaIS8_EEC1Ev, symObjAddr: 0x3224, symBinAddr: 0x100007278, symSize: 0x20 }
  - { offset: 0x292B1, size: 0x8, addend: 0x0, symName: __ZNSt12_Vector_baseIZN7atcoder9mcf_graphIixE5slopeERNS0_8internal3csrINS2_5_edgeEEEiiiE1QSaIS8_EEC2Ev, symObjAddr: 0x3204, symBinAddr: 0x100007258, symSize: 0x20 }
  - { offset: 0x292FD, size: 0x8, addend: 0x0, symName: __ZNSt12_Vector_baseIZN7atcoder9mcf_graphIixE5slopeERNS0_8internal3csrINS2_5_edgeEEEiiiE1QSaIS8_EE12_Vector_implD1Ev, symObjAddr: 0x31D8, symBinAddr: 0x10000722C, symSize: 0x2C }
  - { offset: 0x2935E, size: 0x8, addend: 0x0, symName: __ZNSt6vectorIiSaIiEEC1Ev, symObjAddr: 0x31B8, symBinAddr: 0x10000720C, symSize: 0x20 }
  - { offset: 0x2939D, size: 0x8, addend: 0x0, symName: __ZNSt12_Vector_baseIiSaIiEEC2Ev, symObjAddr: 0x3198, symBinAddr: 0x1000071EC, symSize: 0x20 }
  - { offset: 0x293C1, size: 0x8, addend: 0x0, symName: __ZNSt6vectorIN7atcoder9mcf_graphIixE5_edgeESaIS3_EEixEm, symObjAddr: 0x3138, symBinAddr: 0x10000718C, symSize: 0x34 }
  - { offset: 0x2941E, size: 0x8, addend: 0x0, symName: __ZNSt12_Vector_baseIN7atcoder9mcf_graphIixE5_edgeESaIS3_EED2Ev, symObjAddr: 0x30DC, symBinAddr: 0x100007130, symSize: 0x5C }
  - { offset: 0x29487, size: 0x8, addend: 0x0, symName: __ZNSt12_Vector_baseIiSaIiEED2Ev, symObjAddr: 0x308C, symBinAddr: 0x1000070E0, symSize: 0x50 }
  - { offset: 0x294D0, size: 0x8, addend: 0x0, symName: __ZNSt6vectorIN7atcoder9mcf_graphIixE5_edgeESaIS3_EED1Ev, symObjAddr: 0x3030, symBinAddr: 0x100007084, symSize: 0x5C }
  - { offset: 0x295D7, size: 0x8, addend: 0x0, symName: __ZN7atcoder8internal3csrINS_9mcf_graphIixE5_edgeEEC1EiRKSt6vectorISt4pairIiS4_ESaIS8_EE, symObjAddr: 0x2D8C, symBinAddr: 0x100006DE0, symSize: 0x2A4 }
  - { offset: 0x29827, size: 0x8, addend: 0x0, symName: __ZNSt6vectorISt4pairIiN7atcoder9mcf_graphIixE5_edgeEESaIS5_EE9push_backEOS5_, symObjAddr: 0x2D5C, symBinAddr: 0x100006DB0, symSize: 0x30 }
  - { offset: 0x298A8, size: 0x8, addend: 0x0, symName: __ZNSt4pairIiN7atcoder9mcf_graphIixE5_edgeEEC1IiS3_Lb1EEERKiRKS3_, symObjAddr: 0x2D0C, symBinAddr: 0x100006D60, symSize: 0x50 }
  - { offset: 0x298EE, size: 0x8, addend: 0x0, symName: __ZNSt6vectorIiSaIiEEixEm, symObjAddr: 0x2CE4, symBinAddr: 0x100006D38, symSize: 0x28 }
  - { offset: 0x29926, size: 0x8, addend: 0x0, symName: __ZNSt6vectorIN7atcoder9mcf_graphIixE4edgeESaIS3_EEixEm, symObjAddr: 0x2CB0, symBinAddr: 0x100006D04, symSize: 0x34 }
  - { offset: 0x2995E, size: 0x8, addend: 0x0, symName: __ZNSt6vectorISt4pairIiN7atcoder9mcf_graphIixE5_edgeEESaIS5_EE7reserveEm, symObjAddr: 0x2AF8, symBinAddr: 0x100006B4C, symSize: 0x1B8 }
  - { offset: 0x299F4, size: 0x8, addend: 0x0, symName: __ZNSt6vectorISt4pairIiN7atcoder9mcf_graphIixE5_edgeEESaIS5_EE19_S_nothrow_relocateESt17integral_constantIbLb1EE, symObjAddr: 0x2AE4, symBinAddr: 0x100006B38, symSize: 0x14 }
  - { offset: 0x29A15, size: 0x8, addend: 0x0, symName: __ZNSt6vectorISt4pairIiN7atcoder9mcf_graphIixE5_edgeEESaIS5_EE15_S_use_relocateEv, symObjAddr: 0x2AD0, symBinAddr: 0x100006B24, symSize: 0x14 }
  - { offset: 0x29A55, size: 0x8, addend: 0x0, symName: __ZNSt6vectorISt4pairIiN7atcoder9mcf_graphIixE5_edgeEESaIS5_EED1Ev, symObjAddr: 0x2A74, symBinAddr: 0x100006AC8, symSize: 0x5C }
  - { offset: 0x29AD0, size: 0x8, addend: 0x0, symName: __ZNSt12_Vector_baseISt4pairIiN7atcoder9mcf_graphIixE5_edgeEESaIS5_EED2Ev, symObjAddr: 0x2A24, symBinAddr: 0x100006A78, symSize: 0x50 }
  - { offset: 0x29B2F, size: 0x8, addend: 0x0, symName: __ZNSt12_Vector_baseISt4pairIiN7atcoder9mcf_graphIixE5_edgeEESaIS5_EE12_Vector_implC1Ev, symObjAddr: 0x29EC, symBinAddr: 0x100006A40, symSize: 0x38 }
  - { offset: 0x29BBC, size: 0x8, addend: 0x0, symName: __ZNSt6vectorIiSaIiEED1Ev, symObjAddr: 0x2990, symBinAddr: 0x1000069E4, symSize: 0x5C }
  - { offset: 0x29C49, size: 0x8, addend: 0x0, symName: __ZNSt6vectorIiSaIiEEC1EmRKS0_, symObjAddr: 0x2928, symBinAddr: 0x10000697C, symSize: 0x68 }
  - { offset: 0x29CB3, size: 0x8, addend: 0x0, symName: __ZNSt6vectorIN7atcoder9mcf_graphIixE4edgeESaIS3_EE12emplace_backIJS3_EEEvDpOT_, symObjAddr: 0x2844, symBinAddr: 0x100006898, symSize: 0xE4 }
  - { offset: 0x29D59, size: 0x8, addend: 0x0, symName: __ZSt4moveIRN7atcoder9mcf_graphIixE4edgeEEONSt16remove_referenceIT_E4typeEOS6_, symObjAddr: 0x2830, symBinAddr: 0x100006884, symSize: 0x14 }
  - { offset: 0x29D89, size: 0x8, addend: 0x0, symName: __ZSt8_DestroyIPN7atcoder9mcf_graphIixE4edgeEEvT_S5_, symObjAddr: 0x2808, symBinAddr: 0x10000685C, symSize: 0x28 }
  - { offset: 0x29DCC, size: 0x8, addend: 0x0, symName: __ZNSt12_Vector_baseIN7atcoder9mcf_graphIixE4edgeESaIS3_EE13_M_deallocateEPS3_m, symObjAddr: 0x27B0, symBinAddr: 0x100006804, symSize: 0x58 }
  - { offset: 0x29E6B, size: 0x8, addend: 0x0, symName: __ZNSt15__new_allocatorIN7atcoder9mcf_graphIixE4edgeEED2Ev, symObjAddr: 0x279C, symBinAddr: 0x1000067F0, symSize: 0x14 }
  - { offset: 0x29EAA, size: 0x8, addend: 0x0, symName: __ZNSt12_Vector_baseIN7atcoder9mcf_graphIixE4edgeESaIS3_EE17_Vector_impl_dataC2Ev, symObjAddr: 0x2770, symBinAddr: 0x1000067C4, symSize: 0x2C }
  - { offset: 0x29EE0, size: 0x8, addend: 0x0, symName: __ZSt8_DestroyIPSt6vectorIxSaIxEEEvT_S4_, symObjAddr: 0x2748, symBinAddr: 0x10000679C, symSize: 0x28 }
  - { offset: 0x29F1F, size: 0x8, addend: 0x0, symName: __ZSt24__uninitialized_fill_n_aIPSt6vectorIxSaIxEEmS2_S2_ET_S4_T0_RKT1_RSaIT2_E, symObjAddr: 0x2718, symBinAddr: 0x10000676C, symSize: 0x30 }
  - { offset: 0x29F97, size: 0x8, addend: 0x0, symName: __ZNSt12_Vector_baseISt6vectorIxSaIxEESaIS2_EE13_M_deallocateEPS2_m, symObjAddr: 0x26C0, symBinAddr: 0x100006714, symSize: 0x58 }
  - { offset: 0x2A011, size: 0x8, addend: 0x0, symName: __ZNSt12_Vector_baseISt6vectorIxSaIxEESaIS2_EE17_M_create_storageEm, symObjAddr: 0x2654, symBinAddr: 0x1000066A8, symSize: 0x6C }
  - { offset: 0x2A071, size: 0x8, addend: 0x0, symName: __ZNSt12_Vector_baseISt6vectorIxSaIxEESaIS2_EE12_Vector_implC1ERKS3_, symObjAddr: 0x2608, symBinAddr: 0x10000665C, symSize: 0x4C }
  - { offset: 0x2A110, size: 0x8, addend: 0x0, symName: __ZNSt6vectorIS_IxSaIxEESaIS1_EE11_S_max_sizeERKS2_, symObjAddr: 0x25AC, symBinAddr: 0x100006600, symSize: 0x5C }
  - { offset: 0x2A1BE, size: 0x8, addend: 0x0, symName: __ZSt8_DestroyIPxEvT_S1_, symObjAddr: 0x2584, symBinAddr: 0x1000065D8, symSize: 0x28 }
  - { offset: 0x2A1FD, size: 0x8, addend: 0x0, symName: __ZSt27__uninitialized_default_n_aIPxmxET_S1_T0_RSaIT1_E, symObjAddr: 0x255C, symBinAddr: 0x1000065B0, symSize: 0x28 }
  - { offset: 0x2A25C, size: 0x8, addend: 0x0, symName: __ZNSt12_Vector_baseIxSaIxEE13_M_deallocateEPxm, symObjAddr: 0x2504, symBinAddr: 0x100006558, symSize: 0x58 }
  - { offset: 0x2A2D6, size: 0x8, addend: 0x0, symName: __ZNSt12_Vector_baseIxSaIxEE17_M_create_storageEm, symObjAddr: 0x24A4, symBinAddr: 0x1000064F8, symSize: 0x60 }
  - { offset: 0x2A336, size: 0x8, addend: 0x0, symName: __ZNSt12_Vector_baseIxSaIxEE12_Vector_implC1ERKS0_, symObjAddr: 0x2458, symBinAddr: 0x1000064AC, symSize: 0x4C }
  - { offset: 0x2A3D5, size: 0x8, addend: 0x0, symName: __ZNSt6vectorIxSaIxEE11_S_max_sizeERKS0_, symObjAddr: 0x2404, symBinAddr: 0x100006458, symSize: 0x54 }
  - { offset: 0x2A4CF, size: 0x8, addend: 0x0, symName: __ZNK9__gnu_cxx17__normal_iteratorIPKN7atcoder9mcf_graphIixE4edgeESt6vectorIS4_SaIS4_EEE4baseEv, symObjAddr: 0x23F0, symBinAddr: 0x100006444, symSize: 0x14 }
  - { offset: 0x2A520, size: 0x8, addend: 0x0, symName: __ZN9__gnu_cxx17__normal_iteratorIPKN7atcoder9mcf_graphIixE4edgeESt6vectorIS4_SaIS4_EEEC1ERKS6_, symObjAddr: 0x23C8, symBinAddr: 0x10000641C, symSize: 0x28 }
  - { offset: 0x2A575, size: 0x8, addend: 0x0, symName: __ZNSt6vectorIN7atcoder9mcf_graphIixE4edgeESaIS3_EEC1ERKS5_, symObjAddr: 0x22B4, symBinAddr: 0x100006308, symSize: 0x114 }
  - { offset: 0x2A6B6, size: 0x8, addend: 0x0, symName: __ZNSt12_Vector_baseINSt7__cxx1112basic_stringIcSt11char_traitsIcESaIcEEESaIS5_EE19_M_get_Tp_allocatorEv, symObjAddr: 0x22A0, symBinAddr: 0x1000062F4, symSize: 0x14 }
  - { offset: 0x2A6DE, size: 0x8, addend: 0x0, symName: __ZNSt6vectorINSt7__cxx1112basic_stringIcSt11char_traitsIcESaIcEEESaIS5_EE18_M_fill_initializeEmRKS5_, symObjAddr: 0x2248, symBinAddr: 0x10000629C, symSize: 0x58 }
  - { offset: 0x2A74B, size: 0x8, addend: 0x0, symName: __ZNSt12_Vector_baseINSt7__cxx1112basic_stringIcSt11char_traitsIcESaIcEEESaIS5_EED2Ev, symObjAddr: 0x21F8, symBinAddr: 0x10000624C, symSize: 0x50 }
  - { offset: 0x2A7A6, size: 0x8, addend: 0x0, symName: __ZNSt12_Vector_baseINSt7__cxx1112basic_stringIcSt11char_traitsIcESaIcEEESaIS5_EEC2EmRKS6_, symObjAddr: 0x21A4, symBinAddr: 0x1000061F8, symSize: 0x54 }
  - { offset: 0x2A802, size: 0x8, addend: 0x0, symName: __ZNSt12_Vector_baseINSt7__cxx1112basic_stringIcSt11char_traitsIcESaIcEEESaIS5_EE12_Vector_implD1Ev, symObjAddr: 0x2178, symBinAddr: 0x1000061CC, symSize: 0x2C }
  - { offset: 0x2A844, size: 0x8, addend: 0x0, symName: __ZNSt6vectorINSt7__cxx1112basic_stringIcSt11char_traitsIcESaIcEEESaIS5_EE17_S_check_init_lenEmRKS6_, symObjAddr: 0x20F4, symBinAddr: 0x100006148, symSize: 0x84 }
  - { offset: 0x2A917, size: 0x8, addend: 0x0, symName: __ZNSt15__new_allocatorINSt7__cxx1112basic_stringIcSt11char_traitsIcESaIcEEEED2Ev, symObjAddr: 0x20E0, symBinAddr: 0x100006134, symSize: 0x14 }
  - { offset: 0x2A951, size: 0x8, addend: 0x0, symName: __ZNSt6vectorISt4pairIixESaIS1_EE4backEv, symObjAddr: 0x20A8, symBinAddr: 0x1000060FC, symSize: 0x38 }
  - { offset: 0x2A99E, size: 0x8, addend: 0x0, symName: __ZNSt6vectorISt4pairIixESaIS1_EED1Ev, symObjAddr: 0x204C, symBinAddr: 0x1000060A0, symSize: 0x5C }
  - { offset: 0x2A9F4, size: 0x8, addend: 0x0, symName: __ZN7atcoder9mcf_graphIixE5slopeEiii, symObjAddr: 0x1D88, symBinAddr: 0x100005DDC, symSize: 0x2C4 }
  - { offset: 0x2AAD9, size: 0x8, addend: 0x0, symName: __ZZN7atcoder9mcf_graphIixE5slopeEiiiENKUlvE_clEv, symObjAddr: 0x18A0, symBinAddr: 0x1000058F4, symSize: 0x3CC }
  - { offset: 0x2AE34, size: 0x8, addend: 0x0, symName: __ZNSt12_Vector_baseISt4pairIixESaIS1_EE12_Vector_implD1Ev, symObjAddr: 0x1D5C, symBinAddr: 0x100005DB0, symSize: 0x2C }
  - { offset: 0x2AEA2, size: 0x8, addend: 0x0, symName: __ZNSt12_Vector_baseIN7atcoder9mcf_graphIixE5_edgeESaIS3_EE12_Vector_implD1Ev, symObjAddr: 0x1D30, symBinAddr: 0x100005D84, symSize: 0x2C }
  - { offset: 0x2AF10, size: 0x8, addend: 0x0, symName: __ZNSt12_Vector_baseIiSaIiEE12_Vector_implD1Ev, symObjAddr: 0x1D04, symBinAddr: 0x100005D58, symSize: 0x2C }
  - { offset: 0x2AF7E, size: 0x8, addend: 0x0, symName: __ZN7atcoder8internal3csrINS_9mcf_graphIixE5_edgeEED1Ev, symObjAddr: 0x1CD8, symBinAddr: 0x100005D2C, symSize: 0x2C }
  - { offset: 0x2AFBD, size: 0x8, addend: 0x0, symName: __ZNSt6vectorISt4pairIiN7atcoder9mcf_graphIixE5_edgeEESaIS5_EEC1Ev, symObjAddr: 0x1CB8, symBinAddr: 0x100005D0C, symSize: 0x20 }
  - { offset: 0x2AFFC, size: 0x8, addend: 0x0, symName: __ZNSt12_Vector_baseISt4pairIiN7atcoder9mcf_graphIixE5_edgeEESaIS5_EEC2Ev, symObjAddr: 0x1C98, symBinAddr: 0x100005CEC, symSize: 0x20 }
  - { offset: 0x2B048, size: 0x8, addend: 0x0, symName: __ZNSt12_Vector_baseISt4pairIiN7atcoder9mcf_graphIixE5_edgeEESaIS5_EE12_Vector_implD1Ev, symObjAddr: 0x1C6C, symBinAddr: 0x100005CC0, symSize: 0x2C }
  - { offset: 0x2B08E, size: 0x8, addend: 0x0, symName: __ZNSt6vectorIN7atcoder9mcf_graphIixE4edgeESaIS3_EE9push_backEOS3_, symObjAddr: 0x1870, symBinAddr: 0x1000058C4, symSize: 0x30 }
  - { offset: 0x2B0C6, size: 0x8, addend: 0x0, symName: __ZNKSt6vectorIN7atcoder9mcf_graphIixE4edgeESaIS3_EE4sizeEv, symObjAddr: 0x183C, symBinAddr: 0x100005890, symSize: 0x34 }
  - { offset: 0x2B129, size: 0x8, addend: 0x0, symName: __ZNSt12_Vector_baseIN7atcoder9mcf_graphIixE4edgeESaIS3_EE19_M_get_Tp_allocatorEv, symObjAddr: 0x1828, symBinAddr: 0x10000587C, symSize: 0x14 }
  - { offset: 0x2B176, size: 0x8, addend: 0x0, symName: __ZNSt12_Vector_baseIN7atcoder9mcf_graphIixE4edgeESaIS3_EED2Ev, symObjAddr: 0x17CC, symBinAddr: 0x100005820, symSize: 0x5C }
  - { offset: 0x2B1D5, size: 0x8, addend: 0x0, symName: __ZNSt12_Vector_baseIN7atcoder9mcf_graphIixE4edgeESaIS3_EE12_Vector_implC1Ev, symObjAddr: 0x1794, symBinAddr: 0x1000057E8, symSize: 0x38 }
  - { offset: 0x2B278, size: 0x8, addend: 0x0, symName: __ZNSt12_Vector_baseISt6vectorIxSaIxEESaIS2_EE19_M_get_Tp_allocatorEv, symObjAddr: 0x1780, symBinAddr: 0x1000057D4, symSize: 0x14 }
  - { offset: 0x2B2A0, size: 0x8, addend: 0x0, symName: __ZNSt6vectorIS_IxSaIxEESaIS1_EE18_M_fill_initializeEmRKS1_, symObjAddr: 0x1728, symBinAddr: 0x10000577C, symSize: 0x58 }
  - { offset: 0x2B30D, size: 0x8, addend: 0x0, symName: __ZNSt12_Vector_baseISt6vectorIxSaIxEESaIS2_EED2Ev, symObjAddr: 0x16CC, symBinAddr: 0x100005720, symSize: 0x5C }
  - { offset: 0x2B368, size: 0x8, addend: 0x0, symName: __ZNSt12_Vector_baseISt6vectorIxSaIxEESaIS2_EEC2EmRKS3_, symObjAddr: 0x1678, symBinAddr: 0x1000056CC, symSize: 0x54 }
  - { offset: 0x2B3C4, size: 0x8, addend: 0x0, symName: __ZNSt12_Vector_baseISt6vectorIxSaIxEESaIS2_EE12_Vector_implD1Ev, symObjAddr: 0x164C, symBinAddr: 0x1000056A0, symSize: 0x2C }
  - { offset: 0x2B406, size: 0x8, addend: 0x0, symName: __ZNSt6vectorIS_IxSaIxEESaIS1_EE17_S_check_init_lenEmRKS2_, symObjAddr: 0x15C8, symBinAddr: 0x10000561C, symSize: 0x84 }
  - { offset: 0x2B4D9, size: 0x8, addend: 0x0, symName: __ZNSt15__new_allocatorISt6vectorIxSaIxEEED2Ev, symObjAddr: 0x15B4, symBinAddr: 0x100005608, symSize: 0x14 }
  - { offset: 0x2B54E, size: 0x8, addend: 0x0, symName: __ZNSt12_Vector_baseIxSaIxEE19_M_get_Tp_allocatorEv, symObjAddr: 0x15A0, symBinAddr: 0x1000055F4, symSize: 0x14 }
  - { offset: 0x2B576, size: 0x8, addend: 0x0, symName: __ZNSt6vectorIxSaIxEE21_M_default_initializeEm, symObjAddr: 0x1550, symBinAddr: 0x1000055A4, symSize: 0x50 }
  - { offset: 0x2B5D3, size: 0x8, addend: 0x0, symName: __ZNSt12_Vector_baseIxSaIxEED2Ev, symObjAddr: 0x1500, symBinAddr: 0x100005554, symSize: 0x50 }
  - { offset: 0x2B62E, size: 0x8, addend: 0x0, symName: __ZNSt12_Vector_baseIxSaIxEEC2EmRKS0_, symObjAddr: 0x14AC, symBinAddr: 0x100005500, symSize: 0x54 }
  - { offset: 0x2B68A, size: 0x8, addend: 0x0, symName: __ZNSt12_Vector_baseIxSaIxEE12_Vector_implD1Ev, symObjAddr: 0x1480, symBinAddr: 0x1000054D4, symSize: 0x2C }
  - { offset: 0x2B6CC, size: 0x8, addend: 0x0, symName: __ZNSt6vectorIxSaIxEE17_S_check_init_lenEmRKS0_, symObjAddr: 0x13FC, symBinAddr: 0x100005450, symSize: 0x84 }
  - { offset: 0x2B79F, size: 0x8, addend: 0x0, symName: __ZNSt15__new_allocatorIxED2Ev, symObjAddr: 0x13E8, symBinAddr: 0x10000543C, symSize: 0x14 }
  - { offset: 0x2B7FE, size: 0x8, addend: 0x0, symName: __ZNSt15__new_allocatorImED2Ev, symObjAddr: 0x13D4, symBinAddr: 0x100005428, symSize: 0x14 }
  - { offset: 0x2B847, size: 0x8, addend: 0x0, symName: __ZNSt15__new_allocatorIcED2Ev, symObjAddr: 0x13C0, symBinAddr: 0x100005414, symSize: 0x14 }
  - { offset: 0x2B881, size: 0x8, addend: 0x0, symName: __ZNSt6vectorINSt7__cxx1112basic_stringIcSt11char_traitsIcESaIcEEESaIS5_EEixEm, symObjAddr: 0x1398, symBinAddr: 0x1000053EC, symSize: 0x28 }
  - { offset: 0x2B8B9, size: 0x8, addend: 0x0, symName: __ZNK9__gnu_cxx17__normal_iteratorIPKN7atcoder9mcf_graphIixE4edgeESt6vectorIS4_SaIS4_EEEdeEv, symObjAddr: 0x1380, symBinAddr: 0x1000053D4, symSize: 0x18 }
  - { offset: 0x2B8E1, size: 0x8, addend: 0x0, symName: __ZN9__gnu_cxx17__normal_iteratorIPKN7atcoder9mcf_graphIixE4edgeESt6vectorIS4_SaIS4_EEEppEv, symObjAddr: 0x1358, symBinAddr: 0x1000053AC, symSize: 0x28 }
  - { offset: 0x2B90B, size: 0x8, addend: 0x0, symName: __ZN9__gnu_cxxneIPKN7atcoder9mcf_graphIixE4edgeESt6vectorIS4_SaIS4_EEEEbRKNS_17__normal_iteratorIT_T0_EESF_, symObjAddr: 0x1314, symBinAddr: 0x100005368, symSize: 0x44 }
  - { offset: 0x2B959, size: 0x8, addend: 0x0, symName: __ZNKSt6vectorIN7atcoder9mcf_graphIixE4edgeESaIS3_EE3endEv, symObjAddr: 0x12EC, symBinAddr: 0x100005340, symSize: 0x28 }
  - { offset: 0x2B981, size: 0x8, addend: 0x0, symName: __ZNKSt6vectorIN7atcoder9mcf_graphIixE4edgeESaIS3_EE5beginEv, symObjAddr: 0x12C8, symBinAddr: 0x10000531C, symSize: 0x24 }
  - { offset: 0x2B9A9, size: 0x8, addend: 0x0, symName: __ZN7atcoder9mcf_graphIixE5edgesEv, symObjAddr: 0x1290, symBinAddr: 0x1000052E4, symSize: 0x38 }
  - { offset: 0x2B9F6, size: 0x8, addend: 0x0, symName: __ZNSt6vectorINSt7__cxx1112basic_stringIcSt11char_traitsIcESaIcEEESaIS5_EED1Ev, symObjAddr: 0x1234, symBinAddr: 0x100005288, symSize: 0x5C }
  - { offset: 0x2BA91, size: 0x8, addend: 0x0, symName: __ZNSt6vectorINSt7__cxx1112basic_stringIcSt11char_traitsIcESaIcEEESaIS5_EEC1EmRKS5_RKS6_, symObjAddr: 0x11C4, symBinAddr: 0x100005218, symSize: 0x70 }
  - { offset: 0x2BB03, size: 0x8, addend: 0x0, symName: __ZN7atcoder9mcf_graphIixE4flowEiii, symObjAddr: 0x1164, symBinAddr: 0x1000051B8, symSize: 0x60 }
  - { offset: 0x2BB58, size: 0x8, addend: 0x0, symName: __ZN7atcoder9mcf_graphIixE8add_edgeEiiix, symObjAddr: 0xFA0, symBinAddr: 0x100004FF4, symSize: 0x1C4 }
  - { offset: 0x2BC0B, size: 0x8, addend: 0x0, symName: __ZNSt6vectorIN7atcoder9mcf_graphIixE4edgeESaIS3_EED1Ev, symObjAddr: 0xF44, symBinAddr: 0x100004F98, symSize: 0x5C }
  - { offset: 0x2BC89, size: 0x8, addend: 0x0, symName: __ZN7atcoder9mcf_graphIixEC1Ei, symObjAddr: 0xF10, symBinAddr: 0x100004F64, symSize: 0x34 }
  - { offset: 0x2BCD0, size: 0x8, addend: 0x0, symName: __ZNSt6vectorIN7atcoder9mcf_graphIixE4edgeESaIS3_EEC1Ev, symObjAddr: 0xEF0, symBinAddr: 0x100004F44, symSize: 0x20 }
  - { offset: 0x2BD0F, size: 0x8, addend: 0x0, symName: __ZNSt12_Vector_baseIN7atcoder9mcf_graphIixE4edgeESaIS3_EEC2Ev, symObjAddr: 0xED0, symBinAddr: 0x100004F24, symSize: 0x20 }
  - { offset: 0x2BD5B, size: 0x8, addend: 0x0, symName: __ZNSt12_Vector_baseIN7atcoder9mcf_graphIixE4edgeESaIS3_EE12_Vector_implD1Ev, symObjAddr: 0xEA4, symBinAddr: 0x100004EF8, symSize: 0x2C }
  - { offset: 0x2BDA1, size: 0x8, addend: 0x0, symName: __ZNSt6vectorIxSaIxEEixEm, symObjAddr: 0xE7C, symBinAddr: 0x100004ED0, symSize: 0x28 }
  - { offset: 0x2BDD9, size: 0x8, addend: 0x0, symName: __ZNSt6vectorIS_IxSaIxEESaIS1_EEixEm, symObjAddr: 0xE48, symBinAddr: 0x100004E9C, symSize: 0x34 }
  - { offset: 0x2BE36, size: 0x8, addend: 0x0, symName: __ZNSt6vectorIS_IxSaIxEESaIS1_EED1Ev, symObjAddr: 0xDEC, symBinAddr: 0x100004E40, symSize: 0x5C }
  - { offset: 0x2BED1, size: 0x8, addend: 0x0, symName: __ZNSt6vectorIS_IxSaIxEESaIS1_EEC1EmRKS1_RKS2_, symObjAddr: 0xD7C, symBinAddr: 0x100004DD0, symSize: 0x70 }
  - { offset: 0x2BF68, size: 0x8, addend: 0x0, symName: __ZNSt6vectorIxSaIxEED1Ev, symObjAddr: 0xD20, symBinAddr: 0x100004D74, symSize: 0x5C }
  - { offset: 0x2BFF5, size: 0x8, addend: 0x0, symName: __ZNSt6vectorIxSaIxEEC1EmRKS0_, symObjAddr: 0xCB8, symBinAddr: 0x100004D0C, symSize: 0x68 }
  - { offset: 0x2C05B, size: 0x8, addend: 0x0, symName: __ZSt3maxImERKT_S2_S2_, symObjAddr: 0xC80, symBinAddr: 0x100004CD4, symSize: 0x38 }
  - { offset: 0x2C0FA, size: 0x8, addend: 0x0, symName: _main, symObjAddr: 0xC68, symBinAddr: 0x100004CBC, symSize: 0x18 }
  - { offset: 0x2C119, size: 0x8, addend: 0x0, symName: __Z14ACL_practice_Ev, symObjAddr: 0x6E4, symBinAddr: 0x100004738, symSize: 0x584 }
  - { offset: 0x2C51C, size: 0x8, addend: 0x0, symName: __ZSt7forwardIxEOT_RNSt16remove_referenceIS0_E4typeE, symObjAddr: 0x6D0, symBinAddr: 0x100004724, symSize: 0x14 }
  - { offset: 0x2C54C, size: 0x8, addend: 0x0, symName: __ZNSt10__pair_getILm1EE10__move_getIixEEOT0_OSt4pairIT_S2_E, symObjAddr: 0x6B0, symBinAddr: 0x100004704, symSize: 0x20 }
  - { offset: 0x2C586, size: 0x8, addend: 0x0, symName: __ZSt3getILm1EixEONSt13tuple_elementIXT_ESt4pairIT0_T1_EE4typeEOS4_, symObjAddr: 0x690, symBinAddr: 0x1000046E4, symSize: 0x20 }
  - { offset: 0x2C5D0, size: 0x8, addend: 0x0, symName: __ZSt7forwardIiEOT_RNSt16remove_referenceIS0_E4typeE, symObjAddr: 0x67C, symBinAddr: 0x1000046D0, symSize: 0x14 }
  - { offset: 0x2C600, size: 0x8, addend: 0x0, symName: __ZNSt10__pair_getILm0EE10__move_getIixEEOT_OSt4pairIS2_T0_E, symObjAddr: 0x660, symBinAddr: 0x1000046B4, symSize: 0x1C }
  - { offset: 0x2C640, size: 0x8, addend: 0x0, symName: __ZSt4moveIRSt4pairIixEEONSt16remove_referenceIT_E4typeEOS4_, symObjAddr: 0x64C, symBinAddr: 0x1000046A0, symSize: 0x14 }
  - { offset: 0x2C670, size: 0x8, addend: 0x0, symName: __ZSt3getILm0EixEONSt13tuple_elementIXT_ESt4pairIT0_T1_EE4typeEOS4_, symObjAddr: 0x62C, symBinAddr: 0x100004680, symSize: 0x20 }
  - { offset: 0x2C6E0, size: 0x8, addend: 0x0, symName: __ZN7atcoder9mcf_graphIixED1Ev, symObjAddr: 0x608, symBinAddr: 0x10000465C, symSize: 0x24 }
  - { offset: 0x2C700, size: 0x8, addend: 0x0, symName: __ZSt3minImERKT_S2_S2_, symObjAddr: 0x5D0, symBinAddr: 0x100004624, symSize: 0x38 }
  - { offset: 0x2C73F, size: 0x8, addend: 0x0, symName: __ZSt9__fill_a1St13_Bit_iteratorS_RKb, symObjAddr: 0x4C0, symBinAddr: 0x100004514, symSize: 0x110 }
  - { offset: 0x2C7AA, size: 0x8, addend: 0x0, symName: __ZSt16__fill_bvector_nPmmb, symObjAddr: 0x468, symBinAddr: 0x1000044BC, symSize: 0x58 }
  - { offset: 0x2C7F2, size: 0x8, addend: 0x0, symName: __ZSt14__fill_bvectorPmjjb, symObjAddr: 0x3C4, symBinAddr: 0x100004418, symSize: 0xA4 }
  - { offset: 0x2C880, size: 0x8, addend: 0x0, symName: __ZStplRKSt13_Bit_iteratorl, symObjAddr: 0x36C, symBinAddr: 0x1000043C0, symSize: 0x58 }
  - { offset: 0x2C8CC, size: 0x8, addend: 0x0, symName: __ZNKSt13_Bit_iteratorixEl, symObjAddr: 0x33C, symBinAddr: 0x100004390, symSize: 0x30 }
  - { offset: 0x2C904, size: 0x8, addend: 0x0, symName: __ZNSt13_Bit_iteratorpLEl, symObjAddr: 0x314, symBinAddr: 0x100004368, symSize: 0x28 }
  - { offset: 0x2C93C, size: 0x8, addend: 0x0, symName: __ZNKSt13_Bit_iteratordeEv, symObjAddr: 0x2AC, symBinAddr: 0x100004300, symSize: 0x68 }
  - { offset: 0x2C9C6, size: 0x8, addend: 0x0, symName: __ZNSt13_Bit_iteratorC1EPmj, symObjAddr: 0x27C, symBinAddr: 0x1000042D0, symSize: 0x30 }
  - { offset: 0x2CA15, size: 0x8, addend: 0x0, symName: __ZNSt13_Bit_iteratorC1Ev, symObjAddr: 0x254, symBinAddr: 0x1000042A8, symSize: 0x28 }
  - { offset: 0x2CA39, size: 0x8, addend: 0x0, symName: __ZNSt18_Bit_iterator_base7_M_incrEl, symObjAddr: 0x17C, symBinAddr: 0x1000041D0, symSize: 0xD8 }
  - { offset: 0x2CADF, size: 0x8, addend: 0x0, symName: __ZNSt18_Bit_iterator_baseC2EPmj, symObjAddr: 0x148, symBinAddr: 0x10000419C, symSize: 0x34 }
  - { offset: 0x2CB36, size: 0x8, addend: 0x0, symName: __ZNSt14_Bit_referenceaSEb, symObjAddr: 0xCC, symBinAddr: 0x100004120, symSize: 0x7C }
  - { offset: 0x2CB6D, size: 0x8, addend: 0x0, symName: __ZNKSt14_Bit_referencecvbEv, symObjAddr: 0x98, symBinAddr: 0x1000040EC, symSize: 0x34 }
  - { offset: 0x2CBCA, size: 0x8, addend: 0x0, symName: __ZNSt14_Bit_referenceC1EPmm, symObjAddr: 0x64, symBinAddr: 0x1000040B8, symSize: 0x34 }
  - { offset: 0x2CBFB, size: 0x8, addend: 0x0, symName: __ZNSt14numeric_limitsIxE3maxEv, symObjAddr: 0x5C, symBinAddr: 0x1000040B0, symSize: 0x8 }
  - { offset: 0x2CC1A, size: 0x8, addend: 0x0, symName: __ZdlPvS_, symObjAddr: 0x44, symBinAddr: 0x100004098, symSize: 0x18 }
  - { offset: 0x2CC4E, size: 0x8, addend: 0x0, symName: __ZnwmPv, symObjAddr: 0x2C, symBinAddr: 0x100004080, symSize: 0x18 }
  - { offset: 0x2CC7D, size: 0x8, addend: 0x0, symName: __ZSt17__size_to_integerm, symObjAddr: 0x18, symBinAddr: 0x10000406C, symSize: 0x14 }
  - { offset: 0x2CCC9, size: 0x8, addend: 0x0, symName: __ZN9__gnu_cxx5__ops14_Iter_less_valC1ENS0_15_Iter_less_iterE, symObjAddr: 0x0, symBinAddr: 0x100004054, symSize: 0x18 }
...
